
meta-solitaire.ino.elf:     file format elf32-littlearm


Disassembly of section .text:

00004000 <__text_start__>:
    4000:	20007ffc 	.word	0x20007ffc
    4004:	0000f2b1 	.word	0x0000f2b1
    4008:	00007bb5 	.word	0x00007bb5
    400c:	00007bc5 	.word	0x00007bc5
	...
    402c:	0000f299 	.word	0x0000f299
	...
    4038:	0000f299 	.word	0x0000f299
    403c:	0000f305 	.word	0x0000f305
    4040:	0000f299 	.word	0x0000f299
    4044:	0000f299 	.word	0x0000f299
    4048:	0000f299 	.word	0x0000f299
    404c:	0000f299 	.word	0x0000f299
    4050:	0000f299 	.word	0x0000f299
    4054:	0000f299 	.word	0x0000f299
    4058:	00007805 	.word	0x00007805
    405c:	0000f29d 	.word	0x0000f29d
    4060:	0000f299 	.word	0x0000f299
    4064:	0000f1e5 	.word	0x0000f1e5
    4068:	0000f299 	.word	0x0000f299
    406c:	0000f299 	.word	0x0000f299
    4070:	0000f299 	.word	0x0000f299
    4074:	0000f299 	.word	0x0000f299
    4078:	0000f1f5 	.word	0x0000f1f5
    407c:	0000f299 	.word	0x0000f299
    4080:	0000f299 	.word	0x0000f299
    4084:	0000f299 	.word	0x0000f299
    4088:	0000f299 	.word	0x0000f299
    408c:	0000f299 	.word	0x0000f299
    4090:	0000ef1d 	.word	0x0000ef1d
    4094:	0000f299 	.word	0x0000f299
    4098:	0000f299 	.word	0x0000f299
    409c:	0000f299 	.word	0x0000f299
    40a0:	0000f299 	.word	0x0000f299
    40a4:	0000f299 	.word	0x0000f299
    40a8:	0000f299 	.word	0x0000f299
    40ac:	0000f299 	.word	0x0000f299
    40b0:	00000000 	.word	0x00000000

000040b4 <__do_global_dtors_aux>:
    40b4:	b510      	push	{r4, lr}
    40b6:	4c06      	ldr	r4, [pc, #24]	; (40d0 <__do_global_dtors_aux+0x1c>)
    40b8:	7823      	ldrb	r3, [r4, #0]
    40ba:	2b00      	cmp	r3, #0
    40bc:	d107      	bne.n	40ce <__do_global_dtors_aux+0x1a>
    40be:	4b05      	ldr	r3, [pc, #20]	; (40d4 <__do_global_dtors_aux+0x20>)
    40c0:	2b00      	cmp	r3, #0
    40c2:	d002      	beq.n	40ca <__do_global_dtors_aux+0x16>
    40c4:	4804      	ldr	r0, [pc, #16]	; (40d8 <__do_global_dtors_aux+0x24>)
    40c6:	e000      	b.n	40ca <__do_global_dtors_aux+0x16>
    40c8:	bf00      	nop
    40ca:	2301      	movs	r3, #1
    40cc:	7023      	strb	r3, [r4, #0]
    40ce:	bd10      	pop	{r4, pc}
    40d0:	200001d0 	.word	0x200001d0
    40d4:	00000000 	.word	0x00000000
    40d8:	00015be8 	.word	0x00015be8

000040dc <frame_dummy>:
    40dc:	b508      	push	{r3, lr}
    40de:	4b08      	ldr	r3, [pc, #32]	; (4100 <frame_dummy+0x24>)
    40e0:	2b00      	cmp	r3, #0
    40e2:	d003      	beq.n	40ec <frame_dummy+0x10>
    40e4:	4807      	ldr	r0, [pc, #28]	; (4104 <frame_dummy+0x28>)
    40e6:	4908      	ldr	r1, [pc, #32]	; (4108 <frame_dummy+0x2c>)
    40e8:	e000      	b.n	40ec <frame_dummy+0x10>
    40ea:	bf00      	nop
    40ec:	4807      	ldr	r0, [pc, #28]	; (410c <frame_dummy+0x30>)
    40ee:	6803      	ldr	r3, [r0, #0]
    40f0:	2b00      	cmp	r3, #0
    40f2:	d003      	beq.n	40fc <frame_dummy+0x20>
    40f4:	4b06      	ldr	r3, [pc, #24]	; (4110 <frame_dummy+0x34>)
    40f6:	2b00      	cmp	r3, #0
    40f8:	d000      	beq.n	40fc <frame_dummy+0x20>
    40fa:	4798      	blx	r3
    40fc:	bd08      	pop	{r3, pc}
    40fe:	46c0      	nop			; (mov r8, r8)
    4100:	00000000 	.word	0x00000000
    4104:	00015be8 	.word	0x00015be8
    4108:	200001d4 	.word	0x200001d4
    410c:	200001c0 	.word	0x200001c0
    4110:	00000000 	.word	0x00000000

00004114 <_ZN4CardC1E5Value4Suitb>:

Card::Card(Value value, Suit suit, bool faceDown) {
  // lowest 4 bits, value
  // bits 5 and 6, suite
  // highest bit, 1 if face down
  _value = value | (suit << 4) | (faceDown ? 0x80 : 0);
    4114:	0112      	lsls	r2, r2, #4
    4116:	4311      	orrs	r1, r2
    4118:	1e5a      	subs	r2, r3, #1
    411a:	4193      	sbcs	r3, r2
    411c:	01db      	lsls	r3, r3, #7
    411e:	4319      	orrs	r1, r3
    4120:	7001      	strb	r1, [r0, #0]
}
    4122:	4770      	bx	lr

00004124 <_ZNK4Card10isFaceDownEv>:

bool Card::isFaceDown() const {
  return 0x80 & _value;
    4124:	7800      	ldrb	r0, [r0, #0]
    4126:	09c0      	lsrs	r0, r0, #7
}
    4128:	4770      	bx	lr

0000412a <_ZNK4Card8getValueEv>:

Value Card::getValue() const {
  return static_cast<Value>(0x0f & _value);
    412a:	7800      	ldrb	r0, [r0, #0]
    412c:	230f      	movs	r3, #15
    412e:	4018      	ands	r0, r3
}
    4130:	4770      	bx	lr

00004132 <_ZNK4Card7getSuitEv>:

Suit Card::getSuit() const {
  return static_cast<Suit>((_value >> 4) & 0x03);
    4132:	7800      	ldrb	r0, [r0, #0]
    4134:	0680      	lsls	r0, r0, #26
    4136:	0f80      	lsrs	r0, r0, #30
}
    4138:	4770      	bx	lr

0000413a <_ZNK4Card5isRedEv>:
Value Card::getValue() const {
  return static_cast<Value>(0x0f & _value);
}

Suit Card::getSuit() const {
  return static_cast<Suit>((_value >> 4) & 0x03);
    413a:	7800      	ldrb	r0, [r0, #0]
    413c:	0680      	lsls	r0, r0, #26
    413e:	0f80      	lsrs	r0, r0, #30
}

bool Card::isRed() const {
  return getSuit() == heart || getSuit() == diamond;
    4140:	2802      	cmp	r0, #2
    4142:	d004      	beq.n	414e <_ZNK4Card5isRedEv+0x14>
    4144:	3803      	subs	r0, #3
    4146:	4243      	negs	r3, r0
    4148:	4158      	adcs	r0, r3
    414a:	b2c0      	uxtb	r0, r0
    414c:	e000      	b.n	4150 <_ZNK4Card5isRedEv+0x16>
    414e:	2001      	movs	r0, #1
}
    4150:	4770      	bx	lr

00004152 <_ZN4Card4flipEv>:
  // highest bit, 1 if face down
  _value = value | (suit << 4) | (faceDown ? 0x80 : 0);
}

bool Card::isFaceDown() const {
  return 0x80 & _value;
    4152:	7803      	ldrb	r3, [r0, #0]
bool Card::isRed() const {
  return getSuit() == heart || getSuit() == diamond;
}

void Card::flip() {
  if (isFaceDown()) _value = _value & 0x7f;
    4154:	b25a      	sxtb	r2, r3
    4156:	2a00      	cmp	r2, #0
    4158:	da02      	bge.n	4160 <_ZN4Card4flipEv+0xe>
    415a:	227f      	movs	r2, #127	; 0x7f
    415c:	4013      	ands	r3, r2
    415e:	e002      	b.n	4166 <_ZN4Card4flipEv+0x14>
  else _value = _value | 0x80;
    4160:	2280      	movs	r2, #128	; 0x80
    4162:	4252      	negs	r2, r2
    4164:	4313      	orrs	r3, r2
    4166:	7003      	strb	r3, [r0, #0]
}
    4168:	4770      	bx	lr
	...

0000416c <__tcf_1>:
// Keep track of source pile for returning invalid moves.
Pile *sourcePile;

Pile stockDeck = Pile(52), talonDeck = Pile(24);
Pile foundations[4] = { Pile(13), Pile(13), Pile(13), Pile(13) };
Pile tableau[7] = { Pile(20), Pile(20), Pile(20), Pile(20), Pile(20), Pile(20), Pile(20) };
    416c:	b538      	push	{r3, r4, r5, lr}
    416e:	4b06      	ldr	r3, [pc, #24]	; (4188 <__tcf_1+0x1c>)
    4170:	1c1c      	adds	r4, r3, #0
    4172:	1c1d      	adds	r5, r3, #0
    4174:	3460      	adds	r4, #96	; 0x60
    4176:	3d10      	subs	r5, #16
    4178:	1c20      	adds	r0, r4, #0
    417a:	3c10      	subs	r4, #16
    417c:	f001 fa11 	bl	55a2 <_ZN4PileD1Ev>
    4180:	42ac      	cmp	r4, r5
    4182:	d1f9      	bne.n	4178 <__tcf_1+0xc>
    4184:	bd38      	pop	{r3, r4, r5, pc}
    4186:	46c0      	nop			; (mov r8, r8)
    4188:	200002a8 	.word	0x200002a8

0000418c <__tcf_0>:

// Keep track of source pile for returning invalid moves.
Pile *sourcePile;

Pile stockDeck = Pile(52), talonDeck = Pile(24);
Pile foundations[4] = { Pile(13), Pile(13), Pile(13), Pile(13) };
    418c:	b510      	push	{r4, lr}
    418e:	4c08      	ldr	r4, [pc, #32]	; (41b0 <__tcf_0+0x24>)
    4190:	1c20      	adds	r0, r4, #0
    4192:	3030      	adds	r0, #48	; 0x30
    4194:	f001 fa05 	bl	55a2 <_ZN4PileD1Ev>
    4198:	1c20      	adds	r0, r4, #0
    419a:	3020      	adds	r0, #32
    419c:	f001 fa01 	bl	55a2 <_ZN4PileD1Ev>
    41a0:	1c20      	adds	r0, r4, #0
    41a2:	3010      	adds	r0, #16
    41a4:	f001 f9fd 	bl	55a2 <_ZN4PileD1Ev>
    41a8:	1c20      	adds	r0, r4, #0
    41aa:	f001 f9fa 	bl	55a2 <_ZN4PileD1Ev>
    41ae:	bd10      	pop	{r4, pc}
    41b0:	20000438 	.word	0x20000438

000041b4 <_ZN4CardC1Ev>:
enum Suit { spade = 0, club, heart, diamond };
enum Value { ace = 1, two, three, four, five, six, seven, eight, nine, ten, jack, queen, king };

class Card {
  public:
    Card() : Card(ace, spade, false) { }
    41b4:	b510      	push	{r4, lr}
    41b6:	2200      	movs	r2, #0
    41b8:	1c04      	adds	r4, r0, #0
    41ba:	2101      	movs	r1, #1
    41bc:	1c13      	adds	r3, r2, #0
    41be:	f7ff ffa9 	bl	4114 <_ZN4CardC1E5Value4Suitb>
    41c2:	1c20      	adds	r0, r4, #0
    41c4:	bd10      	pop	{r4, pc}
	...

000041c8 <_Z11revealCardsv>:
  bool unused;
  getCursorDestination(cursorX, cursorY, unused);
  return result;
}

bool revealCards() {
    41c8:	b5f7      	push	{r0, r1, r2, r4, r5, r6, r7, lr}
    41ca:	2400      	movs	r4, #0
  bool revealed = false;
    41cc:	1c27      	adds	r7, r4, #0
    41ce:	4e0f      	ldr	r6, [pc, #60]	; (420c <_Z11revealCardsv+0x44>)
    41d0:	1936      	adds	r6, r6, r4
  // Check for cards to reveal.
  for (int i = 0; i < 7; i++) {
    if (tableau[i].getCardCount() == 0) continue;
    41d2:	1c30      	adds	r0, r6, #0
    41d4:	f001 f9f8 	bl	55c8 <_ZNK4Pile12getCardCountEv>
    41d8:	2800      	cmp	r0, #0
    41da:	d011      	beq.n	4200 <_Z11revealCardsv+0x38>
    Card card = tableau[i].removeTopCard();
    41dc:	1c30      	adds	r0, r6, #0
    41de:	f001 fa16 	bl	560e <_ZN4Pile13removeTopCardEv>
    41e2:	ad01      	add	r5, sp, #4
    41e4:	7028      	strb	r0, [r5, #0]
    if (card.isFaceDown()) {
    41e6:	1c28      	adds	r0, r5, #0
    41e8:	f7ff ff9c 	bl	4124 <_ZNK4Card10isFaceDownEv>
    41ec:	2800      	cmp	r0, #0
    41ee:	d003      	beq.n	41f8 <_Z11revealCardsv+0x30>
      card.flip();
    41f0:	1c28      	adds	r0, r5, #0
    41f2:	f7ff ffae 	bl	4152 <_ZN4Card4flipEv>
      revealed = true;
    41f6:	2701      	movs	r7, #1
    }
    tableau[i].addCard(card);
    41f8:	7829      	ldrb	r1, [r5, #0]
    41fa:	1c30      	adds	r0, r6, #0
    41fc:	f001 f9da 	bl	55b4 <_ZN4Pile7addCardE4Card>
    4200:	3410      	adds	r4, #16
}

bool revealCards() {
  bool revealed = false;
  // Check for cards to reveal.
  for (int i = 0; i < 7; i++) {
    4202:	2c70      	cmp	r4, #112	; 0x70
    4204:	d1e3      	bne.n	41ce <_Z11revealCardsv+0x6>
      revealed = true;
    }
    tableau[i].addCard(card);
  }
  return revealed;
}
    4206:	1c38      	adds	r0, r7, #0
    4208:	bdfe      	pop	{r1, r2, r3, r4, r5, r6, r7, pc}
    420a:	46c0      	nop			; (mov r8, r8)
    420c:	200002a8 	.word	0x200002a8

00004210 <_Z20initializeCardBouncev>:
      setupNewGame();
    }
  }
}

bool initializeCardBounce() {
    4210:	b570      	push	{r4, r5, r6, lr}
  // Return false if all the cards are done.
  if (foundations[bounceIndex].getCardCount() == 0) return false;
    4212:	4c1c      	ldr	r4, [pc, #112]	; (4284 <_Z20initializeCardBouncev+0x74>)
    4214:	4e1c      	ldr	r6, [pc, #112]	; (4288 <_Z20initializeCardBouncev+0x78>)
    4216:	7820      	ldrb	r0, [r4, #0]
    4218:	0100      	lsls	r0, r0, #4
    421a:	1830      	adds	r0, r6, r0
    421c:	f001 f9d4 	bl	55c8 <_ZNK4Pile12getCardCountEv>
    4220:	2300      	movs	r3, #0
    4222:	4298      	cmp	r0, r3
    4224:	d02b      	beq.n	427e <_Z20initializeCardBouncev+0x6e>
  // Pick the next card to animate, with a random initial velocity.
  bounce.card = foundations[bounceIndex].removeTopCard();
    4226:	7820      	ldrb	r0, [r4, #0]
    4228:	4d18      	ldr	r5, [pc, #96]	; (428c <_Z20initializeCardBouncev+0x7c>)
    422a:	0100      	lsls	r0, r0, #4
    422c:	1830      	adds	r0, r6, r0
    422e:	f001 f9ee 	bl	560e <_ZN4Pile13removeTopCardEv>
  bounce.x = foundations[bounceIndex].x << 8;
    4232:	7823      	ldrb	r3, [r4, #0]

bool initializeCardBounce() {
  // Return false if all the cards are done.
  if (foundations[bounceIndex].getCardCount() == 0) return false;
  // Pick the next card to animate, with a random initial velocity.
  bounce.card = foundations[bounceIndex].removeTopCard();
    4234:	7028      	strb	r0, [r5, #0]
  bounce.x = foundations[bounceIndex].x << 8;
    4236:	011b      	lsls	r3, r3, #4
    4238:	5f9a      	ldrsh	r2, [r3, r6]
  bounce.y = foundations[bounceIndex].y << 8;
    423a:	18f6      	adds	r6, r6, r3
bool initializeCardBounce() {
  // Return false if all the cards are done.
  if (foundations[bounceIndex].getCardCount() == 0) return false;
  // Pick the next card to animate, with a random initial velocity.
  bounce.card = foundations[bounceIndex].removeTopCard();
  bounce.x = foundations[bounceIndex].x << 8;
    423c:	0212      	lsls	r2, r2, #8
    423e:	806a      	strh	r2, [r5, #2]
  bounce.y = foundations[bounceIndex].y << 8;
    4240:	2202      	movs	r2, #2
    4242:	5eb3      	ldrsh	r3, [r6, r2]
  bounce.xVelocity = (random(2) ? 1 : -1) * random(0x0100, 0x0200);
    4244:	2002      	movs	r0, #2
  // Return false if all the cards are done.
  if (foundations[bounceIndex].getCardCount() == 0) return false;
  // Pick the next card to animate, with a random initial velocity.
  bounce.card = foundations[bounceIndex].removeTopCard();
  bounce.x = foundations[bounceIndex].x << 8;
  bounce.y = foundations[bounceIndex].y << 8;
    4246:	021b      	lsls	r3, r3, #8
    4248:	80ab      	strh	r3, [r5, #4]
  bounce.xVelocity = (random(2) ? 1 : -1) * random(0x0100, 0x0200);
    424a:	f00b ffb9 	bl	101c0 <_Z6randoml>
    424e:	2601      	movs	r6, #1
    4250:	2800      	cmp	r0, #0
    4252:	d100      	bne.n	4256 <_Z20initializeCardBouncev+0x46>
    4254:	4e0e      	ldr	r6, [pc, #56]	; (4290 <_Z20initializeCardBouncev+0x80>)
    4256:	2080      	movs	r0, #128	; 0x80
    4258:	2180      	movs	r1, #128	; 0x80
    425a:	0089      	lsls	r1, r1, #2
    425c:	0040      	lsls	r0, r0, #1
    425e:	f00b ffbb 	bl	101d8 <_Z6randomll>
    4262:	4346      	muls	r6, r0
  bounce.yVelocity = -1 * random(0x0200);
    4264:	2080      	movs	r0, #128	; 0x80
    4266:	0080      	lsls	r0, r0, #2
  if (foundations[bounceIndex].getCardCount() == 0) return false;
  // Pick the next card to animate, with a random initial velocity.
  bounce.card = foundations[bounceIndex].removeTopCard();
  bounce.x = foundations[bounceIndex].x << 8;
  bounce.y = foundations[bounceIndex].y << 8;
  bounce.xVelocity = (random(2) ? 1 : -1) * random(0x0100, 0x0200);
    4268:	80ee      	strh	r6, [r5, #6]
  bounce.yVelocity = -1 * random(0x0200);
    426a:	f00b ffa9 	bl	101c0 <_Z6randoml>
  bounceIndex = (bounceIndex + 1) % 4;
    426e:	7823      	ldrb	r3, [r4, #0]
    4270:	2203      	movs	r2, #3
    4272:	3301      	adds	r3, #1
    4274:	4013      	ands	r3, r2
  // Pick the next card to animate, with a random initial velocity.
  bounce.card = foundations[bounceIndex].removeTopCard();
  bounce.x = foundations[bounceIndex].x << 8;
  bounce.y = foundations[bounceIndex].y << 8;
  bounce.xVelocity = (random(2) ? 1 : -1) * random(0x0100, 0x0200);
  bounce.yVelocity = -1 * random(0x0200);
    4276:	4240      	negs	r0, r0
  bounceIndex = (bounceIndex + 1) % 4;
    4278:	7023      	strb	r3, [r4, #0]
  // Pick the next card to animate, with a random initial velocity.
  bounce.card = foundations[bounceIndex].removeTopCard();
  bounce.x = foundations[bounceIndex].x << 8;
  bounce.y = foundations[bounceIndex].y << 8;
  bounce.xVelocity = (random(2) ? 1 : -1) * random(0x0100, 0x0200);
  bounce.yVelocity = -1 * random(0x0200);
    427a:	8128      	strh	r0, [r5, #8]
  bounceIndex = (bounceIndex + 1) % 4;
    427c:	2301      	movs	r3, #1
  return true;
}
    427e:	1c18      	adds	r0, r3, #0
    4280:	bd70      	pop	{r4, r5, r6, pc}
    4282:	46c0      	nop			; (mov r8, r8)
    4284:	200001ed 	.word	0x200001ed
    4288:	20000438 	.word	0x20000438
    428c:	20000478 	.word	0x20000478
    4290:	0000ffff 	.word	0x0000ffff

00004294 <_Z21getActiveLocationPilev>:
    }
  }
}

Pile* getActiveLocationPile() {
  switch (activeLocation) {
    4294:	4b0e      	ldr	r3, [pc, #56]	; (42d0 <_Z21getActiveLocationPilev+0x3c>)
      drawSuit(x + 12 + extraWidth, y + 1, card.getSuit());
    }
  }
}

Pile* getActiveLocationPile() {
    4296:	b500      	push	{lr}
  switch (activeLocation) {
    4298:	781b      	ldrb	r3, [r3, #0]
    429a:	2b0c      	cmp	r3, #12
    429c:	d813      	bhi.n	42c6 <_Z21getActiveLocationPilev+0x32>
    429e:	1c18      	adds	r0, r3, #0
    42a0:	f00d f866 	bl	11370 <__gnu_thumb1_case_uqi>
    42a4:	07071412 	.word	0x07071412
    42a8:	0c0c0707 	.word	0x0c0c0707
    42ac:	0c0c0c0c 	.word	0x0c0c0c0c
    42b0:	0c          	.byte	0x0c
    42b1:	00          	.byte	0x00
      return &talonDeck;
    case foundation1:
    case foundation2:
    case foundation3:
    case foundation4:
      return &foundations[activeLocation - foundation1];
    42b2:	3b02      	subs	r3, #2
    42b4:	4807      	ldr	r0, [pc, #28]	; (42d4 <_Z21getActiveLocationPilev+0x40>)
    42b6:	011b      	lsls	r3, r3, #4
    42b8:	18c0      	adds	r0, r0, r3
    42ba:	e008      	b.n	42ce <_Z21getActiveLocationPilev+0x3a>
    case tableau3:
    case tableau4:
    case tableau5:
    case tableau6:
    case tableau7:
      return &tableau[activeLocation - tableau1];
    42bc:	3b06      	subs	r3, #6
    42be:	4806      	ldr	r0, [pc, #24]	; (42d8 <_Z21getActiveLocationPilev+0x44>)
    42c0:	011b      	lsls	r3, r3, #4
    42c2:	18c0      	adds	r0, r0, r3
    42c4:	e003      	b.n	42ce <_Z21getActiveLocationPilev+0x3a>
    42c6:	e002      	b.n	42ce <_Z21getActiveLocationPilev+0x3a>
}

Pile* getActiveLocationPile() {
  switch (activeLocation) {
    case stock:
      return &stockDeck;
    42c8:	4804      	ldr	r0, [pc, #16]	; (42dc <_Z21getActiveLocationPilev+0x48>)
    42ca:	e000      	b.n	42ce <_Z21getActiveLocationPilev+0x3a>
    case talon:
      return &talonDeck;
    42cc:	4804      	ldr	r0, [pc, #16]	; (42e0 <_Z21getActiveLocationPilev+0x4c>)
    case tableau5:
    case tableau6:
    case tableau7:
      return &tableau[activeLocation - tableau1];
  }
}
    42ce:	bd00      	pop	{pc}
    42d0:	2000027c 	.word	0x2000027c
    42d4:	20000438 	.word	0x20000438
    42d8:	200002a8 	.word	0x200002a8
    42dc:	20000280 	.word	0x20000280
    42e0:	20000290 	.word	0x20000290

000042e4 <_Z14updatePositionhh>:

byte updatePosition(byte current, byte destination) {
    42e4:	b510      	push	{r4, lr}
  if (current == destination) return current;
    42e6:	4288      	cmp	r0, r1
    42e8:	d013      	beq.n	4312 <_Z14updatePositionhh+0x2e>

  byte delta = (destination - current) / 4;
    42ea:	1a0a      	subs	r2, r1, r0
    42ec:	17d3      	asrs	r3, r2, #31
    42ee:	0f9b      	lsrs	r3, r3, #30
    42f0:	189b      	adds	r3, r3, r2
    42f2:	109b      	asrs	r3, r3, #2
    42f4:	b2db      	uxtb	r3, r3
  if (delta == 0 && ((gb.frameCount % 2) == 0)) delta = destination > current ? 1 : -1;
    42f6:	2b00      	cmp	r3, #0
    42f8:	d109      	bne.n	430e <_Z14updatePositionhh+0x2a>
    42fa:	4a06      	ldr	r2, [pc, #24]	; (4314 <_Z14updatePositionhh+0x30>)
    42fc:	32fc      	adds	r2, #252	; 0xfc
    42fe:	6e14      	ldr	r4, [r2, #96]	; 0x60
    4300:	2201      	movs	r2, #1
    4302:	4214      	tst	r4, r2
    4304:	d103      	bne.n	430e <_Z14updatePositionhh+0x2a>
    4306:	23ff      	movs	r3, #255	; 0xff
    4308:	4281      	cmp	r1, r0
    430a:	d900      	bls.n	430e <_Z14updatePositionhh+0x2a>
    430c:	1c13      	adds	r3, r2, #0
  return current + delta;
    430e:	1818      	adds	r0, r3, r0
    4310:	b2c0      	uxtb	r0, r0
}
    4312:	bd10      	pop	{r4, pc}
    4314:	20000a3c 	.word	0x20000a3c

00004318 <_Z13cardYPositionP4Pileh>:
      gb.display.drawImage(pile->x, pile->y + 2 * i, cardTopSprite);
    }
  }
}

byte cardYPosition(Pile *pile, byte cardIndex) {
    4318:	b570      	push	{r4, r5, r6, lr}
  if (pile->isTableau) {
    431a:	7903      	ldrb	r3, [r0, #4]
      gb.display.drawImage(pile->x, pile->y + 2 * i, cardTopSprite);
    }
  }
}

byte cardYPosition(Pile *pile, byte cardIndex) {
    431c:	1c04      	adds	r4, r0, #0
    431e:	1c0d      	adds	r5, r1, #0
    4320:	8840      	ldrh	r0, [r0, #2]
  if (pile->isTableau) {
    4322:	2b00      	cmp	r3, #0
    4324:	d010      	beq.n	4348 <_Z13cardYPositionP4Pileh+0x30>
    if (cardIndex > MAX_CARDS_DRAWN_IN_PILE - 1) return pile->y;
    4326:	290e      	cmp	r1, #14
    4328:	d80e      	bhi.n	4348 <_Z13cardYPositionP4Pileh+0x30>
    return pile->y + 2 * (min(pile->getCardCount(), MAX_CARDS_DRAWN_IN_PILE) - cardIndex - 1);
    432a:	b2c6      	uxtb	r6, r0
    432c:	1c20      	adds	r0, r4, #0
    432e:	f001 f94b 	bl	55c8 <_ZNK4Pile12getCardCountEv>
    4332:	230f      	movs	r3, #15
    4334:	280e      	cmp	r0, #14
    4336:	d803      	bhi.n	4340 <_Z13cardYPositionP4Pileh+0x28>
    4338:	1c20      	adds	r0, r4, #0
    433a:	f001 f945 	bl	55c8 <_ZNK4Pile12getCardCountEv>
    433e:	1c03      	adds	r3, r0, #0
    4340:	1b58      	subs	r0, r3, r5
    4342:	3801      	subs	r0, #1
    4344:	0040      	lsls	r0, r0, #1
    4346:	1830      	adds	r0, r6, r0
    4348:	b2c0      	uxtb	r0, r0
  }

  return pile->y;
}
    434a:	bd70      	pop	{r4, r5, r6, pc}

0000434c <_Z20getCursorDestinationRhS_Rb>:
  cursorY = updatePosition(cursorY, y);

  drawCursor(cursorX, cursorY, flipped);
}

void getCursorDestination(byte& x, byte& y, bool& flipped) {
    434c:	b5f7      	push	{r0, r1, r2, r4, r5, r6, r7, lr}
    434e:	1c07      	adds	r7, r0, #0
    4350:	1c0e      	adds	r6, r1, #0
    4352:	1c15      	adds	r5, r2, #0
  Pile* pile = getActiveLocationPile();
    4354:	f7ff ff9e 	bl	4294 <_Z21getActiveLocationPilev>

  switch (activeLocation) {
    4358:	4b2e      	ldr	r3, [pc, #184]	; (4414 <_Z20getCursorDestinationRhS_Rb+0xc8>)

  drawCursor(cursorX, cursorY, flipped);
}

void getCursorDestination(byte& x, byte& y, bool& flipped) {
  Pile* pile = getActiveLocationPile();
    435a:	1c04      	adds	r4, r0, #0

  switch (activeLocation) {
    435c:	7818      	ldrb	r0, [r3, #0]
    435e:	280c      	cmp	r0, #12
    4360:	d856      	bhi.n	4410 <_Z20getCursorDestinationRhS_Rb+0xc4>
    4362:	8823      	ldrh	r3, [r4, #0]
    4364:	f00d f804 	bl	11370 <__gnu_thumb1_case_uqi>
    4368:	2d2d0a07 	.word	0x2d2d0a07
    436c:	35352d2d 	.word	0x35352d2d
    4370:	45454535 	.word	0x45454535
    4374:	45          	.byte	0x45
    4375:	00          	.byte	0x00
    case stock:
      x = pile->x + 9;
    4376:	3309      	adds	r3, #9
    4378:	703b      	strb	r3, [r7, #0]
    437a:	e01c      	b.n	43b6 <_Z20getCursorDestinationRhS_Rb+0x6a>
      y = pile->y + 4;
      flipped = false;
      break;
    case talon:
      x = pile->x + 9 + 2 * min(2, max(0, pile->getCardCount() - 1));
    437c:	b2db      	uxtb	r3, r3
    437e:	1c20      	adds	r0, r4, #0
    4380:	9301      	str	r3, [sp, #4]
    4382:	f001 f921 	bl	55c8 <_ZNK4Pile12getCardCountEv>
    4386:	2800      	cmp	r0, #0
    4388:	d10b      	bne.n	43a2 <_Z20getCursorDestinationRhS_Rb+0x56>
    438a:	1c20      	adds	r0, r4, #0
    438c:	f001 f91c 	bl	55c8 <_ZNK4Pile12getCardCountEv>
    4390:	2800      	cmp	r0, #0
    4392:	d00c      	beq.n	43ae <_Z20getCursorDestinationRhS_Rb+0x62>
    4394:	1c20      	adds	r0, r4, #0
    4396:	f001 f917 	bl	55c8 <_ZNK4Pile12getCardCountEv>
    439a:	3801      	subs	r0, #1
    439c:	0040      	lsls	r0, r0, #1
    439e:	b2c0      	uxtb	r0, r0
    43a0:	e005      	b.n	43ae <_Z20getCursorDestinationRhS_Rb+0x62>
    43a2:	1c20      	adds	r0, r4, #0
    43a4:	f001 f910 	bl	55c8 <_ZNK4Pile12getCardCountEv>
    43a8:	2803      	cmp	r0, #3
    43aa:	ddee      	ble.n	438a <_Z20getCursorDestinationRhS_Rb+0x3e>
    43ac:	2004      	movs	r0, #4
    43ae:	9b01      	ldr	r3, [sp, #4]
    43b0:	3309      	adds	r3, #9
    43b2:	18c0      	adds	r0, r0, r3
    43b4:	7038      	strb	r0, [r7, #0]
      y = pile->y + 4;
    43b6:	8863      	ldrh	r3, [r4, #2]
    43b8:	3304      	adds	r3, #4
    43ba:	7033      	strb	r3, [r6, #0]
      flipped = false;
    43bc:	2300      	movs	r3, #0
    43be:	702b      	strb	r3, [r5, #0]
      break;
    43c0:	e026      	b.n	4410 <_Z20getCursorDestinationRhS_Rb+0xc4>
    case foundation1:
    case foundation2:
    case foundation3:
    case foundation4:
      x = pile->x - 7;
    43c2:	3b07      	subs	r3, #7
    43c4:	703b      	strb	r3, [r7, #0]
      y = pile->y + 4;
    43c6:	8863      	ldrh	r3, [r4, #2]
    43c8:	3304      	adds	r3, #4
    43ca:	7033      	strb	r3, [r6, #0]
      flipped = true;
    43cc:	2301      	movs	r3, #1
    43ce:	702b      	strb	r3, [r5, #0]
      break;
    43d0:	e01e      	b.n	4410 <_Z20getCursorDestinationRhS_Rb+0xc4>
    case tableau1:
    case tableau2:
    case tableau3:
      x = pile->x + 9;
    43d2:	3309      	adds	r3, #9
    43d4:	703b      	strb	r3, [r7, #0]
      y = (cardIndex == 0 ? 4 : -2) + cardYPosition(pile, cardIndex);
    43d6:	4b10      	ldr	r3, [pc, #64]	; (4418 <_Z20getCursorDestinationRhS_Rb+0xcc>)
    43d8:	27fe      	movs	r7, #254	; 0xfe
    43da:	7819      	ldrb	r1, [r3, #0]
    43dc:	2900      	cmp	r1, #0
    43de:	d100      	bne.n	43e2 <_Z20getCursorDestinationRhS_Rb+0x96>
    43e0:	2704      	movs	r7, #4
    43e2:	1c20      	adds	r0, r4, #0
    43e4:	f7ff ff98 	bl	4318 <_Z13cardYPositionP4Pileh>
      flipped = false;
    43e8:	2300      	movs	r3, #0
      break;
    case tableau1:
    case tableau2:
    case tableau3:
      x = pile->x + 9;
      y = (cardIndex == 0 ? 4 : -2) + cardYPosition(pile, cardIndex);
    43ea:	19c7      	adds	r7, r0, r7
    43ec:	7037      	strb	r7, [r6, #0]
      flipped = false;
    43ee:	702b      	strb	r3, [r5, #0]
      break;
    43f0:	e00e      	b.n	4410 <_Z20getCursorDestinationRhS_Rb+0xc4>
    case tableau4:
    case tableau5:
    case tableau6:
    case tableau7:
      x = pile->x - 7;
    43f2:	3b07      	subs	r3, #7
    43f4:	703b      	strb	r3, [r7, #0]
      y = (cardIndex == 0 ? 4 : -2) + cardYPosition(pile, cardIndex);
    43f6:	4b08      	ldr	r3, [pc, #32]	; (4418 <_Z20getCursorDestinationRhS_Rb+0xcc>)
    43f8:	27fe      	movs	r7, #254	; 0xfe
    43fa:	7819      	ldrb	r1, [r3, #0]
    43fc:	2900      	cmp	r1, #0
    43fe:	d100      	bne.n	4402 <_Z20getCursorDestinationRhS_Rb+0xb6>
    4400:	2704      	movs	r7, #4
    4402:	1c20      	adds	r0, r4, #0
    4404:	f7ff ff88 	bl	4318 <_Z13cardYPositionP4Pileh>
      flipped = true;
    4408:	2301      	movs	r3, #1
    case tableau4:
    case tableau5:
    case tableau6:
    case tableau7:
      x = pile->x - 7;
      y = (cardIndex == 0 ? 4 : -2) + cardYPosition(pile, cardIndex);
    440a:	19c7      	adds	r7, r0, r7
    440c:	7037      	strb	r7, [r6, #0]
      flipped = true;
    440e:	702b      	strb	r3, [r5, #0]
      break;
  }
}
    4410:	bdf7      	pop	{r0, r1, r2, r4, r5, r6, r7, pc}
    4412:	46c0      	nop			; (mov r8, r8)
    4414:	2000027c 	.word	0x2000027c
    4418:	200002a4 	.word	0x200002a4

0000441c <_Z10playSoundAv>:
    valueSprite.setFrame(isRed ? 14 : 0);
    gb.display.drawImage(x - 4, y, valueSprite);
  }
}

void playSoundA() {
    441c:	b508      	push	{r3, lr}
  gb.sound.play(patternA);
    441e:	4803      	ldr	r0, [pc, #12]	; (442c <_Z10playSoundAv+0x10>)
    4420:	4903      	ldr	r1, [pc, #12]	; (4430 <_Z10playSoundAv+0x14>)
    4422:	2200      	movs	r2, #0
    4424:	f00a fce6 	bl	edf4 <_ZN14Gamebuino_Meta5Sound4playEPKtb>
}
    4428:	bd08      	pop	{r3, pc}
    442a:	46c0      	nop			; (mov r8, r8)
    442c:	20000a74 	.word	0x20000a74
    4430:	00011920 	.word	0x00011920

00004434 <_Z10playSoundBv>:

void playSoundB() {
    4434:	b508      	push	{r3, lr}
  gb.sound.play(patternB);
    4436:	4803      	ldr	r0, [pc, #12]	; (4444 <_Z10playSoundBv+0x10>)
    4438:	4903      	ldr	r1, [pc, #12]	; (4448 <_Z10playSoundBv+0x14>)
    443a:	2200      	movs	r2, #0
    443c:	f00a fcda 	bl	edf4 <_ZN14Gamebuino_Meta5Sound4playEPKtb>
}
    4440:	bd08      	pop	{r3, pc}
    4442:	46c0      	nop			; (mov r8, r8)
    4444:	20000a74 	.word	0x20000a74
    4448:	00011926 	.word	0x00011926

0000444c <_Z11drawAndFlipP4PileS0_>:

void drawAndFlip(Pile *source, Pile *destination) {
    444c:	b537      	push	{r0, r1, r2, r4, r5, lr}
    444e:	1c0d      	adds	r5, r1, #0
  Card card = source->removeTopCard();
    4450:	f001 f8dd 	bl	560e <_ZN4Pile13removeTopCardEv>
    4454:	ac01      	add	r4, sp, #4
    4456:	7020      	strb	r0, [r4, #0]
  card.flip();
    4458:	1c20      	adds	r0, r4, #0
    445a:	f7ff fe7a 	bl	4152 <_ZN4Card4flipEv>
  destination->addCard(card);
    445e:	1c28      	adds	r0, r5, #0
    4460:	7821      	ldrb	r1, [r4, #0]
    4462:	f001 f8a7 	bl	55b4 <_ZN4Pile7addCardE4Card>
}
    4466:	bd37      	pop	{r0, r1, r2, r4, r5, pc}

00004468 <_GLOBAL__sub_I_mode>:
      action.destination->removeCards(action.getCardCount(), &moving);
      action.source->addPile(&moving);
    }
    updateAfterPlay();
  }
}
    4468:	b570      	push	{r4, r5, r6, lr}
byte cardIndex;
// Position of the cursor for animation.
byte cursorX, cursorY;

// Animating moving stack of cards.
Pile moving = Pile(13);
    446a:	4e3a      	ldr	r6, [pc, #232]	; (4554 <_GLOBAL__sub_I_mode+0xec>)
    446c:	210d      	movs	r1, #13
    446e:	1c30      	adds	r0, r6, #0
    4470:	f001 f880 	bl	5574 <_ZN4PileC1Eh>
    4474:	4d38      	ldr	r5, [pc, #224]	; (4558 <_GLOBAL__sub_I_mode+0xf0>)
    4476:	4c39      	ldr	r4, [pc, #228]	; (455c <_GLOBAL__sub_I_mode+0xf4>)
    4478:	1c2a      	adds	r2, r5, #0
    447a:	1c21      	adds	r1, r4, #0
    447c:	1c30      	adds	r0, r6, #0
    447e:	f00d f83b 	bl	114f8 <__aeabi_atexit>
byte cardsToDraw = 1;

// Keep track of source pile for returning invalid moves.
Pile *sourcePile;

Pile stockDeck = Pile(52), talonDeck = Pile(24);
    4482:	4e37      	ldr	r6, [pc, #220]	; (4560 <_GLOBAL__sub_I_mode+0xf8>)
    4484:	2134      	movs	r1, #52	; 0x34
    4486:	1c30      	adds	r0, r6, #0
    4488:	f001 f874 	bl	5574 <_ZN4PileC1Eh>
    448c:	1c2a      	adds	r2, r5, #0
    448e:	1c21      	adds	r1, r4, #0
    4490:	1c30      	adds	r0, r6, #0
    4492:	f00d f831 	bl	114f8 <__aeabi_atexit>
    4496:	4e33      	ldr	r6, [pc, #204]	; (4564 <_GLOBAL__sub_I_mode+0xfc>)
    4498:	2118      	movs	r1, #24
    449a:	1c30      	adds	r0, r6, #0
    449c:	f001 f86a 	bl	5574 <_ZN4PileC1Eh>
    44a0:	1c2a      	adds	r2, r5, #0
    44a2:	1c21      	adds	r1, r4, #0
    44a4:	1c30      	adds	r0, r6, #0
    44a6:	f00d f827 	bl	114f8 <__aeabi_atexit>
Pile foundations[4] = { Pile(13), Pile(13), Pile(13), Pile(13) };
    44aa:	4c2f      	ldr	r4, [pc, #188]	; (4568 <_GLOBAL__sub_I_mode+0x100>)
    44ac:	210d      	movs	r1, #13
    44ae:	1c20      	adds	r0, r4, #0
    44b0:	f001 f860 	bl	5574 <_ZN4PileC1Eh>
    44b4:	1c20      	adds	r0, r4, #0
    44b6:	210d      	movs	r1, #13
    44b8:	3010      	adds	r0, #16
    44ba:	f001 f85b 	bl	5574 <_ZN4PileC1Eh>
    44be:	1c20      	adds	r0, r4, #0
    44c0:	210d      	movs	r1, #13
    44c2:	3020      	adds	r0, #32
    44c4:	f001 f856 	bl	5574 <_ZN4PileC1Eh>
    44c8:	1c20      	adds	r0, r4, #0
    44ca:	210d      	movs	r1, #13
    44cc:	3030      	adds	r0, #48	; 0x30
    44ce:	f001 f851 	bl	5574 <_ZN4PileC1Eh>
    44d2:	1c2a      	adds	r2, r5, #0
    44d4:	4925      	ldr	r1, [pc, #148]	; (456c <_GLOBAL__sub_I_mode+0x104>)
    44d6:	2000      	movs	r0, #0
    44d8:	f00d f80e 	bl	114f8 <__aeabi_atexit>
Pile tableau[7] = { Pile(20), Pile(20), Pile(20), Pile(20), Pile(20), Pile(20), Pile(20) };
    44dc:	4c24      	ldr	r4, [pc, #144]	; (4570 <_GLOBAL__sub_I_mode+0x108>)
    44de:	2114      	movs	r1, #20
    44e0:	1c20      	adds	r0, r4, #0
    44e2:	f001 f847 	bl	5574 <_ZN4PileC1Eh>
    44e6:	1c20      	adds	r0, r4, #0
    44e8:	2114      	movs	r1, #20
    44ea:	3010      	adds	r0, #16
    44ec:	f001 f842 	bl	5574 <_ZN4PileC1Eh>
    44f0:	1c20      	adds	r0, r4, #0
    44f2:	2114      	movs	r1, #20
    44f4:	3020      	adds	r0, #32
    44f6:	f001 f83d 	bl	5574 <_ZN4PileC1Eh>
    44fa:	1c20      	adds	r0, r4, #0
    44fc:	2114      	movs	r1, #20
    44fe:	3030      	adds	r0, #48	; 0x30
    4500:	f001 f838 	bl	5574 <_ZN4PileC1Eh>
    4504:	1c20      	adds	r0, r4, #0
    4506:	2114      	movs	r1, #20
    4508:	3040      	adds	r0, #64	; 0x40
    450a:	f001 f833 	bl	5574 <_ZN4PileC1Eh>
    450e:	1c20      	adds	r0, r4, #0
    4510:	2114      	movs	r1, #20
    4512:	3050      	adds	r0, #80	; 0x50
    4514:	f001 f82e 	bl	5574 <_ZN4PileC1Eh>
    4518:	1c20      	adds	r0, r4, #0
    451a:	2114      	movs	r1, #20
    451c:	3060      	adds	r0, #96	; 0x60
    451e:	f001 f829 	bl	5574 <_ZN4PileC1Eh>
    4522:	1c2a      	adds	r2, r5, #0
    4524:	4913      	ldr	r1, [pc, #76]	; (4574 <_GLOBAL__sub_I_mode+0x10c>)
    4526:	2000      	movs	r0, #0
    4528:	f00c ffe6 	bl	114f8 <__aeabi_atexit>

UndoStack undo;
    452c:	4812      	ldr	r0, [pc, #72]	; (4578 <_GLOBAL__sub_I_mode+0x110>)
    452e:	f001 f983 	bl	5838 <_ZN9UndoStackC1Ev>
    4532:	4b12      	ldr	r3, [pc, #72]	; (457c <_GLOBAL__sub_I_mode+0x114>)
    4534:	2291      	movs	r2, #145	; 0x91
    4536:	1c1c      	adds	r4, r3, #0
    4538:	0052      	lsls	r2, r2, #1
    453a:	340a      	adds	r4, #10
    453c:	189d      	adds	r5, r3, r2
    453e:	1c20      	adds	r0, r4, #0
    4540:	380a      	subs	r0, #10
    4542:	340a      	adds	r4, #10

struct CardAnimation {
    4544:	f7ff fe36 	bl	41b4 <_ZN4CardC1Ev>
  byte tableauIndex;
  int16_t x, y, destX, destY;
};

// Used to deal at the start of the game.
CardAnimation cardAnimations[28];
    4548:	42ac      	cmp	r4, r5
    454a:	d1f8      	bne.n	453e <_GLOBAL__sub_I_mode+0xd6>
byte cardAnimationCount = 0;

struct CardBounce {
    454c:	480c      	ldr	r0, [pc, #48]	; (4580 <_GLOBAL__sub_I_mode+0x118>)
    454e:	f7ff fe31 	bl	41b4 <_ZN4CardC1Ev>
      action.destination->removeCards(action.getCardCount(), &moving);
      action.source->addPile(&moving);
    }
    updateAfterPlay();
  }
}
    4552:	bd70      	pop	{r4, r5, r6, pc}
    4554:	200001f0 	.word	0x200001f0
    4558:	20000000 	.word	0x20000000
    455c:	000055a3 	.word	0x000055a3
    4560:	20000280 	.word	0x20000280
    4564:	20000290 	.word	0x20000290
    4568:	20000438 	.word	0x20000438
    456c:	0000418d 	.word	0x0000418d
    4570:	200002a8 	.word	0x200002a8
    4574:	0000416d 	.word	0x0000416d
    4578:	20000200 	.word	0x20000200
    457c:	20000318 	.word	0x20000318
    4580:	20000478 	.word	0x20000478

00004584 <_Z8drawSuitss4Suit>:

  drawSuit(x + 1, y + 2, card.getSuit());
  drawValue(x + 5, y + 7, card.getValue(), card.isRed());
}

void drawSuit(int16_t x, int16_t y, Suit suit) {
    4584:	b570      	push	{r4, r5, r6, lr}
  suitSprite.setFrame(suit);
    4586:	4c07      	ldr	r4, [pc, #28]	; (45a4 <_Z8drawSuitss4Suit+0x20>)

  drawSuit(x + 1, y + 2, card.getSuit());
  drawValue(x + 5, y + 7, card.getValue(), card.isRed());
}

void drawSuit(int16_t x, int16_t y, Suit suit) {
    4588:	1c06      	adds	r6, r0, #0
    458a:	1c0d      	adds	r5, r1, #0
  suitSprite.setFrame(suit);
    458c:	1c20      	adds	r0, r4, #0
    458e:	1c11      	adds	r1, r2, #0
    4590:	f006 fc90 	bl	aeb4 <_ZN14Gamebuino_Meta5Image8setFrameEt>
  gb.display.drawImage(x, y, suitSprite);
    4594:	1c31      	adds	r1, r6, #0
    4596:	1c2a      	adds	r2, r5, #0
    4598:	4803      	ldr	r0, [pc, #12]	; (45a8 <_Z8drawSuitss4Suit+0x24>)
    459a:	1c23      	adds	r3, r4, #0
    459c:	f006 fdb4 	bl	b108 <_ZN14Gamebuino_Meta5Image9drawImageEssRS0_>
}
    45a0:	bd70      	pop	{r4, r5, r6, pc}
    45a2:	46c0      	nop			; (mov r8, r8)
    45a4:	200004b0 	.word	0x200004b0
    45a8:	20000a4c 	.word	0x20000a4c

000045ac <_Z9drawValuess5Valueb>:

void drawValue(int16_t x, int16_t y, Value value, bool isRed) {
    45ac:	b5f7      	push	{r0, r1, r2, r4, r5, r6, r7, lr}
    45ae:	1c0d      	adds	r5, r1, #0
  valueSprite.setFrame(value + (isRed ? 14 : 0));
    45b0:	2100      	movs	r1, #0
void drawSuit(int16_t x, int16_t y, Suit suit) {
  suitSprite.setFrame(suit);
  gb.display.drawImage(x, y, suitSprite);
}

void drawValue(int16_t x, int16_t y, Value value, bool isRed) {
    45b2:	9000      	str	r0, [sp, #0]
    45b4:	1c16      	adds	r6, r2, #0
    45b6:	9301      	str	r3, [sp, #4]
  valueSprite.setFrame(value + (isRed ? 14 : 0));
    45b8:	428b      	cmp	r3, r1
    45ba:	d000      	beq.n	45be <_Z9drawValuess5Valueb+0x12>
    45bc:	210e      	movs	r1, #14
    45be:	4c0f      	ldr	r4, [pc, #60]	; (45fc <_Z9drawValuess5Valueb+0x50>)
    45c0:	1989      	adds	r1, r1, r6
    45c2:	1c20      	adds	r0, r4, #0
    45c4:	f006 fc76 	bl	aeb4 <_ZN14Gamebuino_Meta5Image8setFrameEt>
  gb.display.drawImage(x, y, valueSprite);
    45c8:	4f0d      	ldr	r7, [pc, #52]	; (4600 <_Z9drawValuess5Valueb+0x54>)
    45ca:	9900      	ldr	r1, [sp, #0]
    45cc:	1c38      	adds	r0, r7, #0
    45ce:	1c2a      	adds	r2, r5, #0
    45d0:	1c23      	adds	r3, r4, #0
    45d2:	f006 fd99 	bl	b108 <_ZN14Gamebuino_Meta5Image9drawImageEssRS0_>
  
  if (value == ten) {
    45d6:	2e0a      	cmp	r6, #10
    45d8:	d10f      	bne.n	45fa <_Z9drawValuess5Valueb+0x4e>
    valueSprite.setFrame(isRed ? 14 : 0);
    45da:	9b01      	ldr	r3, [sp, #4]
    45dc:	2100      	movs	r1, #0
    45de:	428b      	cmp	r3, r1
    45e0:	d000      	beq.n	45e4 <_Z9drawValuess5Valueb+0x38>
    45e2:	210e      	movs	r1, #14
    45e4:	1c20      	adds	r0, r4, #0
    45e6:	f006 fc65 	bl	aeb4 <_ZN14Gamebuino_Meta5Image8setFrameEt>
    gb.display.drawImage(x - 4, y, valueSprite);
    45ea:	9900      	ldr	r1, [sp, #0]
    45ec:	1c38      	adds	r0, r7, #0
    45ee:	3904      	subs	r1, #4
    45f0:	b209      	sxth	r1, r1
    45f2:	1c2a      	adds	r2, r5, #0
    45f4:	1c23      	adds	r3, r4, #0
    45f6:	f006 fd87 	bl	b108 <_ZN14Gamebuino_Meta5Image9drawImageEssRS0_>
  }
}
    45fa:	bdf7      	pop	{r0, r1, r2, r4, r5, r6, r7, pc}
    45fc:	200004d8 	.word	0x200004d8
    4600:	20000a4c 	.word	0x20000a4c

00004604 <_Z8drawCardss4Card>:
  }

  return pile->y;
}

void drawCard(int16_t x, int16_t y, Card card) {
    4604:	b5f7      	push	{r0, r1, r2, r4, r5, r6, r7, lr}
    4606:	ac01      	add	r4, sp, #4
    4608:	1c06      	adds	r6, r0, #0
  cardSprite.setFrame(card.isFaceDown() ? 1 : 0);
    460a:	1c20      	adds	r0, r4, #0
  }

  return pile->y;
}

void drawCard(int16_t x, int16_t y, Card card) {
    460c:	1c0d      	adds	r5, r1, #0
    460e:	7022      	strb	r2, [r4, #0]
  cardSprite.setFrame(card.isFaceDown() ? 1 : 0);
    4610:	f7ff fd88 	bl	4124 <_ZNK4Card10isFaceDownEv>
    4614:	4f15      	ldr	r7, [pc, #84]	; (466c <_Z8drawCardss4Card+0x68>)
    4616:	1c01      	adds	r1, r0, #0
    4618:	1c38      	adds	r0, r7, #0
    461a:	f006 fc4b 	bl	aeb4 <_ZN14Gamebuino_Meta5Image8setFrameEt>
  gb.display.drawImage(x, y, cardSprite);
    461e:	4814      	ldr	r0, [pc, #80]	; (4670 <_Z8drawCardss4Card+0x6c>)
    4620:	1c31      	adds	r1, r6, #0
    4622:	1c2a      	adds	r2, r5, #0
    4624:	1c3b      	adds	r3, r7, #0
    4626:	f006 fd6f 	bl	b108 <_ZN14Gamebuino_Meta5Image9drawImageEssRS0_>
  
  if (card.isFaceDown()) return;
    462a:	1c20      	adds	r0, r4, #0
    462c:	f7ff fd7a 	bl	4124 <_ZNK4Card10isFaceDownEv>
    4630:	2800      	cmp	r0, #0
    4632:	d11a      	bne.n	466a <_Z8drawCardss4Card+0x66>

  drawSuit(x + 1, y + 2, card.getSuit());
    4634:	1c20      	adds	r0, r4, #0
    4636:	f7ff fd7c 	bl	4132 <_ZNK4Card7getSuitEv>
    463a:	b2b6      	uxth	r6, r6
    463c:	b2ad      	uxth	r5, r5
    463e:	1c02      	adds	r2, r0, #0
    4640:	1ca9      	adds	r1, r5, #2
    4642:	1c70      	adds	r0, r6, #1
    4644:	b209      	sxth	r1, r1
    4646:	b200      	sxth	r0, r0
    4648:	f7ff ff9c 	bl	4584 <_Z8drawSuitss4Suit>
  drawValue(x + 5, y + 7, card.getValue(), card.isRed());
    464c:	1c20      	adds	r0, r4, #0
    464e:	f7ff fd6c 	bl	412a <_ZNK4Card8getValueEv>
    4652:	1c07      	adds	r7, r0, #0
    4654:	1c20      	adds	r0, r4, #0
    4656:	f7ff fd70 	bl	413a <_ZNK4Card5isRedEv>
    465a:	3605      	adds	r6, #5
    465c:	3507      	adds	r5, #7
    465e:	1c03      	adds	r3, r0, #0
    4660:	b229      	sxth	r1, r5
    4662:	b230      	sxth	r0, r6
    4664:	1c3a      	adds	r2, r7, #0
    4666:	f7ff ffa1 	bl	45ac <_Z9drawValuess5Valueb>
}
    466a:	bdf7      	pop	{r0, r1, r2, r4, r5, r6, r7, pc}
    466c:	20000528 	.word	0x20000528
    4670:	20000a4c 	.word	0x20000a4c

00004674 <_Z11drawDealingv>:
  for (int i = 0; i < 7; i++) {
    drawPile(&tableau[i]);
  }
}

void drawDealing() {
    4674:	b5f7      	push	{r0, r1, r2, r4, r5, r6, r7, lr}
  if (cardAnimationCount < 28 && gb.frameCount % 4 == 0) {
    4676:	4f2b      	ldr	r7, [pc, #172]	; (4724 <_Z11drawDealingv+0xb0>)
    4678:	783b      	ldrb	r3, [r7, #0]
    467a:	2b1b      	cmp	r3, #27
    467c:	d808      	bhi.n	4690 <_Z11drawDealingv+0x1c>
    467e:	4a2a      	ldr	r2, [pc, #168]	; (4728 <_Z11drawDealingv+0xb4>)
    4680:	32fc      	adds	r2, #252	; 0xfc
    4682:	6e12      	ldr	r2, [r2, #96]	; 0x60
    4684:	0791      	lsls	r1, r2, #30
    4686:	d103      	bne.n	4690 <_Z11drawDealingv+0x1c>
    cardAnimationCount++;
    4688:	3301      	adds	r3, #1
    468a:	703b      	strb	r3, [r7, #0]
    playSoundA();
    468c:	f7ff fec6 	bl	441c <_Z10playSoundAv>
  }
  bool doneDealing = cardAnimationCount == 28;
    4690:	783b      	ldrb	r3, [r7, #0]
    4692:	4c26      	ldr	r4, [pc, #152]	; (472c <_Z11drawDealingv+0xb8>)
    4694:	3b1c      	subs	r3, #28
    4696:	425a      	negs	r2, r3
    4698:	4153      	adcs	r3, r2
    469a:	b2db      	uxtb	r3, r3
    469c:	9300      	str	r3, [sp, #0]
    469e:	3404      	adds	r4, #4
  for (int i = 0; i < cardAnimationCount; i++) {
    46a0:	2500      	movs	r5, #0
    46a2:	783b      	ldrb	r3, [r7, #0]
    46a4:	429d      	cmp	r5, r3
    46a6:	da35      	bge.n	4714 <_Z11drawDealingv+0xa0>
    46a8:	1ea6      	subs	r6, r4, #2
    if (cardAnimations[i].x != cardAnimations[i].destX || cardAnimations[i].y != cardAnimations[i].destY) {
    46aa:	2100      	movs	r1, #0
    46ac:	5e70      	ldrsh	r0, [r6, r1]
    46ae:	2202      	movs	r2, #2
    46b0:	5ea3      	ldrsh	r3, [r4, r2]
    46b2:	2200      	movs	r2, #0
    46b4:	5ea1      	ldrsh	r1, [r4, r2]
    46b6:	4283      	cmp	r3, r0
    46b8:	d103      	bne.n	46c2 <_Z11drawDealingv+0x4e>
    46ba:	2204      	movs	r2, #4
    46bc:	5ea3      	ldrsh	r3, [r4, r2]
    46be:	4299      	cmp	r1, r3
    46c0:	d025      	beq.n	470e <_Z11drawDealingv+0x9a>
      doneDealing = false;
      drawCard(cardAnimations[i].x, cardAnimations[i].y, cardAnimations[i].card);
    46c2:	230a      	movs	r3, #10
    46c4:	436b      	muls	r3, r5
    46c6:	4a19      	ldr	r2, [pc, #100]	; (472c <_Z11drawDealingv+0xb8>)
    46c8:	9301      	str	r3, [sp, #4]
    46ca:	5c9a      	ldrb	r2, [r3, r2]
    46cc:	f7ff ff9a 	bl	4604 <_Z8drawCardss4Card>
      cardAnimations[i].x = updatePosition(cardAnimations[i].x, cardAnimations[i].destX);
    46d0:	7830      	ldrb	r0, [r6, #0]
    46d2:	78a1      	ldrb	r1, [r4, #2]
    46d4:	f7ff fe06 	bl	42e4 <_Z14updatePositionhh>
    46d8:	8030      	strh	r0, [r6, #0]
      cardAnimations[i].y = updatePosition(cardAnimations[i].y, cardAnimations[i].destY);
    46da:	7921      	ldrb	r1, [r4, #4]
    46dc:	7820      	ldrb	r0, [r4, #0]
    46de:	f7ff fe01 	bl	42e4 <_Z14updatePositionhh>
    46e2:	8020      	strh	r0, [r4, #0]
      if (cardAnimations[i].x == cardAnimations[i].destX && cardAnimations[i].y == cardAnimations[i].destY) {
    46e4:	2300      	movs	r3, #0
    46e6:	5ef2      	ldrsh	r2, [r6, r3]
    46e8:	2102      	movs	r1, #2
    46ea:	5e63      	ldrsh	r3, [r4, r1]
    playSoundA();
  }
  bool doneDealing = cardAnimationCount == 28;
  for (int i = 0; i < cardAnimationCount; i++) {
    if (cardAnimations[i].x != cardAnimations[i].destX || cardAnimations[i].y != cardAnimations[i].destY) {
      doneDealing = false;
    46ec:	2100      	movs	r1, #0
    46ee:	9100      	str	r1, [sp, #0]
      drawCard(cardAnimations[i].x, cardAnimations[i].y, cardAnimations[i].card);
      cardAnimations[i].x = updatePosition(cardAnimations[i].x, cardAnimations[i].destX);
      cardAnimations[i].y = updatePosition(cardAnimations[i].y, cardAnimations[i].destY);
      if (cardAnimations[i].x == cardAnimations[i].destX && cardAnimations[i].y == cardAnimations[i].destY) {
    46f0:	429a      	cmp	r2, r3
    46f2:	d10c      	bne.n	470e <_Z11drawDealingv+0x9a>
    46f4:	88a3      	ldrh	r3, [r4, #4]
    46f6:	4298      	cmp	r0, r3
    46f8:	d109      	bne.n	470e <_Z11drawDealingv+0x9a>
    46fa:	1ee3      	subs	r3, r4, #3
        tableau[cardAnimations[i].tableauIndex].addCard(cardAnimations[i].card);
    46fc:	7818      	ldrb	r0, [r3, #0]
    46fe:	4b0c      	ldr	r3, [pc, #48]	; (4730 <_Z11drawDealingv+0xbc>)
    4700:	0100      	lsls	r0, r0, #4
    4702:	1818      	adds	r0, r3, r0
    4704:	9a01      	ldr	r2, [sp, #4]
    4706:	4b09      	ldr	r3, [pc, #36]	; (472c <_Z11drawDealingv+0xb8>)
    4708:	5cd1      	ldrb	r1, [r2, r3]
    470a:	f000 ff53 	bl	55b4 <_ZN4Pile7addCardE4Card>
  if (cardAnimationCount < 28 && gb.frameCount % 4 == 0) {
    cardAnimationCount++;
    playSoundA();
  }
  bool doneDealing = cardAnimationCount == 28;
  for (int i = 0; i < cardAnimationCount; i++) {
    470e:	3501      	adds	r5, #1
    4710:	340a      	adds	r4, #10
    4712:	e7c6      	b.n	46a2 <_Z11drawDealingv+0x2e>
      if (cardAnimations[i].x == cardAnimations[i].destX && cardAnimations[i].y == cardAnimations[i].destY) {
        tableau[cardAnimations[i].tableauIndex].addCard(cardAnimations[i].card);
      }
    }
  }
  if (doneDealing) mode = selecting;
    4714:	9900      	ldr	r1, [sp, #0]
    4716:	2900      	cmp	r1, #0
    4718:	d002      	beq.n	4720 <_Z11drawDealingv+0xac>
    471a:	4b06      	ldr	r3, [pc, #24]	; (4734 <_Z11drawDealingv+0xc0>)
    471c:	2201      	movs	r2, #1
    471e:	701a      	strb	r2, [r3, #0]
}
    4720:	bdf7      	pop	{r0, r1, r2, r4, r5, r6, r7, pc}
    4722:	46c0      	nop			; (mov r8, r8)
    4724:	200001ec 	.word	0x200001ec
    4728:	20000a3c 	.word	0x20000a3c
    472c:	20000318 	.word	0x20000318
    4730:	200002a8 	.word	0x200002a8
    4734:	200002a0 	.word	0x200002a0

00004738 <_Z8drawPileP4Pile>:
  byte delta = (destination - current) / 4;
  if (delta == 0 && ((gb.frameCount % 2) == 0)) delta = destination > current ? 1 : -1;
  return current + delta;
}

void drawPile(Pile* pile) {
    4738:	b5f0      	push	{r4, r5, r6, r7, lr}
    473a:	b085      	sub	sp, #20
    473c:	1c04      	adds	r4, r0, #0
  int baseIndex = max(0, pile->getCardCount() - MAX_CARDS_DRAWN_IN_PILE);
    473e:	f000 ff43 	bl	55c8 <_ZNK4Pile12getCardCountEv>
    4742:	2300      	movs	r3, #0
    4744:	9301      	str	r3, [sp, #4]
    4746:	280e      	cmp	r0, #14
    4748:	dd04      	ble.n	4754 <_Z8drawPileP4Pile+0x1c>
    474a:	1c20      	adds	r0, r4, #0
    474c:	f000 ff3c 	bl	55c8 <_ZNK4Pile12getCardCountEv>
    4750:	380f      	subs	r0, #15
    4752:	9001      	str	r0, [sp, #4]
  for (int i = 0; i < min(pile->getCardCount(), MAX_CARDS_DRAWN_IN_PILE); i++) {
    4754:	2500      	movs	r5, #0
    4756:	1c20      	adds	r0, r4, #0
    4758:	f000 ff36 	bl	55c8 <_ZNK4Pile12getCardCountEv>
    475c:	230f      	movs	r3, #15
    475e:	280e      	cmp	r0, #14
    4760:	d803      	bhi.n	476a <_Z8drawPileP4Pile+0x32>
    4762:	1c20      	adds	r0, r4, #0
    4764:	f000 ff30 	bl	55c8 <_ZNK4Pile12getCardCountEv>
    4768:	1c03      	adds	r3, r0, #0
    476a:	429d      	cmp	r5, r3
    476c:	da2f      	bge.n	47ce <_Z8drawPileP4Pile+0x96>
    byte cardIndex = pile->getCardCount() - i - 1 - baseIndex;
    476e:	1c20      	adds	r0, r4, #0
    4770:	f000 ff2a 	bl	55c8 <_ZNK4Pile12getCardCountEv>
    4774:	9b01      	ldr	r3, [sp, #4]
    4776:	006f      	lsls	r7, r5, #1
    4778:	43d9      	mvns	r1, r3
    477a:	1b49      	subs	r1, r1, r5
    477c:	1841      	adds	r1, r0, r1
    477e:	b2c9      	uxtb	r1, r1
    if (cardIndex == 0) {
    4780:	2900      	cmp	r1, #0
    4782:	d10c      	bne.n	479e <_Z8drawPileP4Pile+0x66>
      drawCard(pile->x, pile->y + 2 * i, pile->getCard(cardIndex));
    4784:	8863      	ldrh	r3, [r4, #2]
    4786:	1c20      	adds	r0, r4, #0
    4788:	8826      	ldrh	r6, [r4, #0]
    478a:	18ff      	adds	r7, r7, r3
    478c:	f000 ff1e 	bl	55cc <_ZNK4Pile7getCardEi>
    4790:	b2bf      	uxth	r7, r7
    4792:	1c02      	adds	r2, r0, #0
    4794:	b239      	sxth	r1, r7
    4796:	b230      	sxth	r0, r6
    4798:	f7ff ff34 	bl	4604 <_Z8drawCardss4Card>
    479c:	e015      	b.n	47ca <_Z8drawPileP4Pile+0x92>
    }
    else {
      Card card = pile->getCard(cardIndex);
    479e:	1c20      	adds	r0, r4, #0
    47a0:	f000 ff14 	bl	55cc <_ZNK4Pile7getCardEi>
    47a4:	ab03      	add	r3, sp, #12
    47a6:	7018      	strb	r0, [r3, #0]
      cardTopSprite.setFrame(card.isFaceDown() ? 1 : 0);
    47a8:	1c18      	adds	r0, r3, #0
    47aa:	f7ff fcbb 	bl	4124 <_ZNK4Card10isFaceDownEv>
    47ae:	4e09      	ldr	r6, [pc, #36]	; (47d4 <_Z8drawPileP4Pile+0x9c>)
    47b0:	1c01      	adds	r1, r0, #0
    47b2:	1c30      	adds	r0, r6, #0
    47b4:	f006 fb7e 	bl	aeb4 <_ZN14Gamebuino_Meta5Image8setFrameEt>
      gb.display.drawImage(pile->x, pile->y + 2 * i, cardTopSprite);
    47b8:	8862      	ldrh	r2, [r4, #2]
    47ba:	2300      	movs	r3, #0
    47bc:	5ee1      	ldrsh	r1, [r4, r3]
    47be:	18bf      	adds	r7, r7, r2
    47c0:	b23a      	sxth	r2, r7
    47c2:	4805      	ldr	r0, [pc, #20]	; (47d8 <_Z8drawPileP4Pile+0xa0>)
    47c4:	1c33      	adds	r3, r6, #0
    47c6:	f006 fc9f 	bl	b108 <_ZN14Gamebuino_Meta5Image9drawImageEssRS0_>
  return current + delta;
}

void drawPile(Pile* pile) {
  int baseIndex = max(0, pile->getCardCount() - MAX_CARDS_DRAWN_IN_PILE);
  for (int i = 0; i < min(pile->getCardCount(), MAX_CARDS_DRAWN_IN_PILE); i++) {
    47ca:	3501      	adds	r5, #1
    47cc:	e7c3      	b.n	4756 <_Z8drawPileP4Pile+0x1e>
      Card card = pile->getCard(cardIndex);
      cardTopSprite.setFrame(card.isFaceDown() ? 1 : 0);
      gb.display.drawImage(pile->x, pile->y + 2 * i, cardTopSprite);
    }
  }
}
    47ce:	b005      	add	sp, #20
    47d0:	bdf0      	pop	{r4, r5, r6, r7, pc}
    47d2:	46c0      	nop			; (mov r8, r8)
    47d4:	20000550 	.word	0x20000550
    47d8:	20000a4c 	.word	0x20000a4c

000047dc <_Z16drawDrawingCardsv>:
    }
  }
  if (doneDealing) mode = selecting;
}

void drawDrawingCards() {
    47dc:	b5f0      	push	{r4, r5, r6, r7, lr}
  drawPile(&moving);
    47de:	4c23      	ldr	r4, [pc, #140]	; (486c <_Z16drawDrawingCardsv+0x90>)
    }
  }
  if (doneDealing) mode = selecting;
}

void drawDrawingCards() {
    47e0:	b087      	sub	sp, #28
  drawPile(&moving);
    47e2:	1c20      	adds	r0, r4, #0
    47e4:	f7ff ffa8 	bl	4738 <_Z8drawPileP4Pile>
  moving.x = updatePosition(moving.x, talonDeck.x + 2);
    47e8:	4d21      	ldr	r5, [pc, #132]	; (4870 <_Z16drawDrawingCardsv+0x94>)
    47ea:	7820      	ldrb	r0, [r4, #0]
    47ec:	882f      	ldrh	r7, [r5, #0]
    47ee:	1cb9      	adds	r1, r7, #2
    47f0:	b2c9      	uxtb	r1, r1
    47f2:	f7ff fd77 	bl	42e4 <_Z14updatePositionhh>
    47f6:	8020      	strh	r0, [r4, #0]
  moving.y = updatePosition(moving.y, talonDeck.y);
    47f8:	886b      	ldrh	r3, [r5, #2]
  if (doneDealing) mode = selecting;
}

void drawDrawingCards() {
  drawPile(&moving);
  moving.x = updatePosition(moving.x, talonDeck.x + 2);
    47fa:	1c06      	adds	r6, r0, #0
  moving.y = updatePosition(moving.y, talonDeck.y);
    47fc:	9301      	str	r3, [sp, #4]
    47fe:	78a0      	ldrb	r0, [r4, #2]
    4800:	b2d9      	uxtb	r1, r3
    4802:	f7ff fd6f 	bl	42e4 <_Z14updatePositionhh>
  if (moving.x == talonDeck.x + 2 && moving.y == talonDeck.y) {
    4806:	b23f      	sxth	r7, r7
    4808:	3702      	adds	r7, #2
}

void drawDrawingCards() {
  drawPile(&moving);
  moving.x = updatePosition(moving.x, talonDeck.x + 2);
  moving.y = updatePosition(moving.y, talonDeck.y);
    480a:	8060      	strh	r0, [r4, #2]
  if (moving.x == talonDeck.x + 2 && moving.y == talonDeck.y) {
    480c:	42be      	cmp	r6, r7
    480e:	d12b      	bne.n	4868 <_Z16drawDrawingCardsv+0x8c>
    4810:	9b01      	ldr	r3, [sp, #4]
    4812:	4283      	cmp	r3, r0
    4814:	d128      	bne.n	4868 <_Z16drawDrawingCardsv+0x8c>
    talonDeck.addCard(moving.getCard(0));
    4816:	2100      	movs	r1, #0
    4818:	1c20      	adds	r0, r4, #0
    481a:	f000 fed7 	bl	55cc <_ZNK4Pile7getCardEi>
    481e:	1c01      	adds	r1, r0, #0
    4820:	1c28      	adds	r0, r5, #0
    4822:	f000 fec7 	bl	55b4 <_ZN4Pile7addCardE4Card>
    if (remainingDraws) {
    4826:	4b13      	ldr	r3, [pc, #76]	; (4874 <_Z16drawDrawingCardsv+0x98>)
    4828:	781a      	ldrb	r2, [r3, #0]
    482a:	2a00      	cmp	r2, #0
    482c:	d010      	beq.n	4850 <_Z16drawDrawingCardsv+0x74>
      remainingDraws--;
    482e:	3a01      	subs	r2, #1
      moving.empty();
    4830:	1c20      	adds	r0, r4, #0
  moving.x = updatePosition(moving.x, talonDeck.x + 2);
  moving.y = updatePosition(moving.y, talonDeck.y);
  if (moving.x == talonDeck.x + 2 && moving.y == talonDeck.y) {
    talonDeck.addCard(moving.getCard(0));
    if (remainingDraws) {
      remainingDraws--;
    4832:	701a      	strb	r2, [r3, #0]
      moving.empty();
    4834:	f000 ff12 	bl	565c <_ZN4Pile5emptyEv>
      drawAndFlip(&stockDeck, &moving);
    4838:	4d0f      	ldr	r5, [pc, #60]	; (4878 <_Z16drawDrawingCardsv+0x9c>)
    483a:	1c21      	adds	r1, r4, #0
    483c:	1c28      	adds	r0, r5, #0
    483e:	f7ff fe05 	bl	444c <_Z11drawAndFlipP4PileS0_>
      moving.x = stockDeck.x;
    4842:	882b      	ldrh	r3, [r5, #0]
    4844:	8023      	strh	r3, [r4, #0]
      moving.y = stockDeck.y;
    4846:	886b      	ldrh	r3, [r5, #2]
    4848:	8063      	strh	r3, [r4, #2]
      playSoundA();
    484a:	f7ff fde7 	bl	441c <_Z10playSoundAv>
    484e:	e00b      	b.n	4868 <_Z16drawDrawingCardsv+0x8c>
    }
    else {
      UndoAction action;
      action.setDraw();
      undo.pushAction(action);
    4850:	ab03      	add	r3, sp, #12
    4852:	2240      	movs	r2, #64	; 0x40
    4854:	701a      	strb	r2, [r3, #0]
    4856:	4809      	ldr	r0, [pc, #36]	; (487c <_Z16drawDrawingCardsv+0xa0>)
    4858:	9a04      	ldr	r2, [sp, #16]
    485a:	9b05      	ldr	r3, [sp, #20]
    485c:	9903      	ldr	r1, [sp, #12]
    485e:	f000 fff8 	bl	5852 <_ZN9UndoStack10pushActionE10UndoAction>
      mode = selecting;
    4862:	4b07      	ldr	r3, [pc, #28]	; (4880 <_Z16drawDrawingCardsv+0xa4>)
    4864:	2201      	movs	r2, #1
    4866:	701a      	strb	r2, [r3, #0]
    }
  }
}
    4868:	b007      	add	sp, #28
    486a:	bdf0      	pop	{r4, r5, r6, r7, pc}
    486c:	200001f0 	.word	0x200001f0
    4870:	20000290 	.word	0x20000290
    4874:	200002a3 	.word	0x200002a3
    4878:	20000280 	.word	0x20000280
    487c:	20000200 	.word	0x20000200
    4880:	200002a0 	.word	0x200002a0

00004884 <_Z14drawMovingPilev>:

void drawMovingPile() {
    4884:	b570      	push	{r4, r5, r6, lr}
  drawPile(&moving);
    4886:	4c0e      	ldr	r4, [pc, #56]	; (48c0 <_Z14drawMovingPilev+0x3c>)
  Pile* pile = getActiveLocationPile();
  byte yDelta = 2;
    4888:	2602      	movs	r6, #2
    }
  }
}

void drawMovingPile() {
  drawPile(&moving);
    488a:	1c20      	adds	r0, r4, #0
    488c:	f7ff ff54 	bl	4738 <_Z8drawPileP4Pile>
  Pile* pile = getActiveLocationPile();
    4890:	f7ff fd00 	bl	4294 <_Z21getActiveLocationPilev>
  byte yDelta = 2;
  if (pile->isTableau) yDelta += 2 * pile->getCardCount();
    4894:	7903      	ldrb	r3, [r0, #4]
  }
}

void drawMovingPile() {
  drawPile(&moving);
  Pile* pile = getActiveLocationPile();
    4896:	1c05      	adds	r5, r0, #0
  byte yDelta = 2;
  if (pile->isTableau) yDelta += 2 * pile->getCardCount();
    4898:	2b00      	cmp	r3, #0
    489a:	d004      	beq.n	48a6 <_Z14drawMovingPilev+0x22>
    489c:	f000 fe94 	bl	55c8 <_ZNK4Pile12getCardCountEv>
    48a0:	0046      	lsls	r6, r0, #1
    48a2:	3602      	adds	r6, #2
    48a4:	b2f6      	uxtb	r6, r6
  moving.x = updatePosition(moving.x, pile->x);
    48a6:	7829      	ldrb	r1, [r5, #0]
    48a8:	7820      	ldrb	r0, [r4, #0]
    48aa:	f7ff fd1b 	bl	42e4 <_Z14updatePositionhh>
    48ae:	8020      	strh	r0, [r4, #0]
  moving.y = updatePosition(moving.y, pile->y + yDelta);  
    48b0:	8869      	ldrh	r1, [r5, #2]
    48b2:	78a0      	ldrb	r0, [r4, #2]
    48b4:	1876      	adds	r6, r6, r1
    48b6:	b2f1      	uxtb	r1, r6
    48b8:	f7ff fd14 	bl	42e4 <_Z14updatePositionhh>
    48bc:	8060      	strh	r0, [r4, #2]
}
    48be:	bd70      	pop	{r4, r5, r6, pc}
    48c0:	200001f0 	.word	0x200001f0

000048c4 <_Z9drawBoardv>:
        // writeEeprom(false);
      }
  }
}

void drawBoard() {
    48c4:	b5f7      	push	{r0, r1, r2, r4, r5, r6, r7, lr}
  // Background
  gb.display.drawImage(0, 0, backgroundImage);
    48c6:	4d30      	ldr	r5, [pc, #192]	; (4988 <_Z9drawBoardv+0xc4>)
    48c8:	2100      	movs	r1, #0
    48ca:	1c28      	adds	r0, r5, #0
    48cc:	1c0a      	adds	r2, r1, #0
    48ce:	4b2f      	ldr	r3, [pc, #188]	; (498c <_Z9drawBoardv+0xc8>)
    48d0:	f006 fc1a 	bl	b108 <_ZN14Gamebuino_Meta5Image9drawImageEssRS0_>
  
  // Stock
  if (stockDeck.getCardCount() != 0) {
    48d4:	4c2e      	ldr	r4, [pc, #184]	; (4990 <_Z9drawBoardv+0xcc>)
    48d6:	1c20      	adds	r0, r4, #0
    48d8:	f000 fe76 	bl	55c8 <_ZNK4Pile12getCardCountEv>
    48dc:	2800      	cmp	r0, #0
    48de:	d00d      	beq.n	48fc <_Z9drawBoardv+0x38>
    drawCard(stockDeck.x, stockDeck.y, Card(ace, spade, true));
    48e0:	8826      	ldrh	r6, [r4, #0]
    48e2:	8867      	ldrh	r7, [r4, #2]
    48e4:	2101      	movs	r1, #1
    48e6:	ac01      	add	r4, sp, #4
    48e8:	2200      	movs	r2, #0
    48ea:	1c0b      	adds	r3, r1, #0
    48ec:	1c20      	adds	r0, r4, #0
    48ee:	f7ff fc11 	bl	4114 <_ZN4CardC1E5Value4Suitb>
    48f2:	b230      	sxth	r0, r6
    48f4:	b239      	sxth	r1, r7
    48f6:	7822      	ldrb	r2, [r4, #0]
    48f8:	f7ff fe84 	bl	4604 <_Z8drawCardss4Card>
  }
  
  // Talon
  if (talonDeck.getCardCount() > 0) {
    48fc:	4c25      	ldr	r4, [pc, #148]	; (4994 <_Z9drawBoardv+0xd0>)
    48fe:	1c20      	adds	r0, r4, #0
    4900:	f000 fe62 	bl	55c8 <_ZNK4Pile12getCardCountEv>
    4904:	2800      	cmp	r0, #0
    4906:	d01f      	beq.n	4948 <_Z9drawBoardv+0x84>
    gb.display.drawImage(talonDeck.x, talonDeck.y, talonBackgroundImage);
    4908:	2300      	movs	r3, #0
    490a:	5ee1      	ldrsh	r1, [r4, r3]
    490c:	2302      	movs	r3, #2
    490e:	5ee2      	ldrsh	r2, [r4, r3]
    4910:	1c28      	adds	r0, r5, #0
    4912:	4b21      	ldr	r3, [pc, #132]	; (4998 <_Z9drawBoardv+0xd4>)
    4914:	f006 fbf8 	bl	b108 <_ZN14Gamebuino_Meta5Image9drawImageEssRS0_>
    drawCard(talonDeck.x + (min(3, talonDeck.getCardCount()) - 1) * 2, talonDeck.y, talonDeck.getCard(0));
    4918:	1c20      	adds	r0, r4, #0
    491a:	8827      	ldrh	r7, [r4, #0]
    491c:	f000 fe54 	bl	55c8 <_ZNK4Pile12getCardCountEv>
    4920:	2504      	movs	r5, #4
    4922:	2803      	cmp	r0, #3
    4924:	d805      	bhi.n	4932 <_Z9drawBoardv+0x6e>
    4926:	1c20      	adds	r0, r4, #0
    4928:	f000 fe4e 	bl	55c8 <_ZNK4Pile12getCardCountEv>
    492c:	1e45      	subs	r5, r0, #1
    492e:	006d      	lsls	r5, r5, #1
    4930:	b2ad      	uxth	r5, r5
    4932:	2100      	movs	r1, #0
    4934:	1c20      	adds	r0, r4, #0
    4936:	8866      	ldrh	r6, [r4, #2]
    4938:	f000 fe48 	bl	55cc <_ZNK4Pile7getCardEi>
    493c:	19ed      	adds	r5, r5, r7
    493e:	1c02      	adds	r2, r0, #0
    4940:	b231      	sxth	r1, r6
    4942:	b228      	sxth	r0, r5
    4944:	f7ff fe5e 	bl	4604 <_Z8drawCardss4Card>
    4948:	4c14      	ldr	r4, [pc, #80]	; (499c <_Z9drawBoardv+0xd8>)
    494a:	1c25      	adds	r5, r4, #0
    494c:	3540      	adds	r5, #64	; 0x40
  }
  
  // Foundations
  for (int i = 0; i < 4; i++) {
    if (foundations[i].getCardCount() != 0) {
    494e:	1c20      	adds	r0, r4, #0
    4950:	f000 fe3a 	bl	55c8 <_ZNK4Pile12getCardCountEv>
    4954:	2800      	cmp	r0, #0
    4956:	d00a      	beq.n	496e <_Z9drawBoardv+0xaa>
      drawCard(foundations[i].x, foundations[i].y, foundations[i].getCard(0));
    4958:	2100      	movs	r1, #0
    495a:	1c20      	adds	r0, r4, #0
    495c:	8827      	ldrh	r7, [r4, #0]
    495e:	8866      	ldrh	r6, [r4, #2]
    4960:	f000 fe34 	bl	55cc <_ZNK4Pile7getCardEi>
    4964:	b231      	sxth	r1, r6
    4966:	1c02      	adds	r2, r0, #0
    4968:	b238      	sxth	r0, r7
    496a:	f7ff fe4b 	bl	4604 <_Z8drawCardss4Card>
    496e:	3410      	adds	r4, #16
    gb.display.drawImage(talonDeck.x, talonDeck.y, talonBackgroundImage);
    drawCard(talonDeck.x + (min(3, talonDeck.getCardCount()) - 1) * 2, talonDeck.y, talonDeck.getCard(0));
  }
  
  // Foundations
  for (int i = 0; i < 4; i++) {
    4970:	42ac      	cmp	r4, r5
    4972:	d1ec      	bne.n	494e <_Z9drawBoardv+0x8a>
    4974:	4c0a      	ldr	r4, [pc, #40]	; (49a0 <_Z9drawBoardv+0xdc>)
    4976:	1c25      	adds	r5, r4, #0
    4978:	3570      	adds	r5, #112	; 0x70
    }
  }
  
  // Tableau
  for (int i = 0; i < 7; i++) {
    drawPile(&tableau[i]);
    497a:	1c20      	adds	r0, r4, #0
    497c:	3410      	adds	r4, #16
    497e:	f7ff fedb 	bl	4738 <_Z8drawPileP4Pile>
      drawCard(foundations[i].x, foundations[i].y, foundations[i].getCard(0));
    }
  }
  
  // Tableau
  for (int i = 0; i < 7; i++) {
    4982:	42ac      	cmp	r4, r5
    4984:	d1f9      	bne.n	497a <_Z9drawBoardv+0xb6>
    drawPile(&tableau[i]);
  }
}
    4986:	bdf7      	pop	{r0, r1, r2, r4, r5, r6, r7, pc}
    4988:	20000a4c 	.word	0x20000a4c
    498c:	20000578 	.word	0x20000578
    4990:	20000280 	.word	0x20000280
    4994:	20000290 	.word	0x20000290
    4998:	20000500 	.word	0x20000500
    499c:	20000438 	.word	0x20000438
    49a0:	200002a8 	.word	0x200002a8

000049a4 <_Z12setupNewGamev>:
  setupNewGame();
  
  // testWinningAnimation();
}

void setupNewGame() {
    49a4:	b5f0      	push	{r4, r5, r6, r7, lr}
  gb.lights.fill(BLACK);
    49a6:	2100      	movs	r1, #0
  setupNewGame();
  
  // testWinningAnimation();
}

void setupNewGame() {
    49a8:	b087      	sub	sp, #28
  gb.lights.fill(BLACK);
    49aa:	4845      	ldr	r0, [pc, #276]	; (4ac0 <_Z12setupNewGamev+0x11c>)
    49ac:	f005 f9d6 	bl	9d5c <_ZN14Gamebuino_Meta8Graphics4fillENS_5ColorE>
  
  talonDeck.empty();
    49b0:	4844      	ldr	r0, [pc, #272]	; (4ac4 <_Z12setupNewGamev+0x120>)
    49b2:	f000 fe53 	bl	565c <_ZN4Pile5emptyEv>
  stockDeck.newDeck();
    49b6:	4c44      	ldr	r4, [pc, #272]	; (4ac8 <_Z12setupNewGamev+0x124>)
    49b8:	1c20      	adds	r0, r4, #0
    49ba:	f000 fe6d 	bl	5698 <_ZN4Pile7newDeckEv>
  stockDeck.shuffle();
    49be:	1c20      	adds	r0, r4, #0
    49c0:	f000 fe4f 	bl	5662 <_ZN4Pile7shuffleEv>
  for (int i = 0; i < 4; i++) {
    foundations[i].empty();
    49c4:	4c41      	ldr	r4, [pc, #260]	; (4acc <_Z12setupNewGamev+0x128>)
    49c6:	1c20      	adds	r0, r4, #0
    49c8:	f000 fe48 	bl	565c <_ZN4Pile5emptyEv>
    49cc:	1c20      	adds	r0, r4, #0
    49ce:	3010      	adds	r0, #16
    49d0:	f000 fe44 	bl	565c <_ZN4Pile5emptyEv>
    49d4:	1c20      	adds	r0, r4, #0
    49d6:	3020      	adds	r0, #32
    49d8:	f000 fe40 	bl	565c <_ZN4Pile5emptyEv>
    49dc:	1c20      	adds	r0, r4, #0
    49de:	3030      	adds	r0, #48	; 0x30
    49e0:	f000 fe3c 	bl	565c <_ZN4Pile5emptyEv>
    49e4:	4d3a      	ldr	r5, [pc, #232]	; (4ad0 <_Z12setupNewGamev+0x12c>)
    49e6:	4c3a      	ldr	r4, [pc, #232]	; (4ad0 <_Z12setupNewGamev+0x12c>)
    49e8:	3570      	adds	r5, #112	; 0x70
  }
  for (int i = 0; i < 7; i++) {
    tableau[i].empty();
    49ea:	1c20      	adds	r0, r4, #0
    49ec:	3410      	adds	r4, #16
    49ee:	f000 fe35 	bl	565c <_ZN4Pile5emptyEv>
  stockDeck.newDeck();
  stockDeck.shuffle();
  for (int i = 0; i < 4; i++) {
    foundations[i].empty();
  }
  for (int i = 0; i < 7; i++) {
    49f2:	42ac      	cmp	r4, r5
    49f4:	d1f9      	bne.n	49ea <_Z12setupNewGamev+0x46>
    tableau[i].empty();
  }

  // Put the cursor at the stock.
  activeLocation = stock;
    49f6:	4b37      	ldr	r3, [pc, #220]	; (4ad4 <_Z12setupNewGamev+0x130>)
  bool unused;
  getCursorDestination(cursorX, cursorY, unused);
    49f8:	466a      	mov	r2, sp
  for (int i = 0; i < 7; i++) {
    tableau[i].empty();
  }

  // Put the cursor at the stock.
  activeLocation = stock;
    49fa:	2400      	movs	r4, #0
  bool unused;
  getCursorDestination(cursorX, cursorY, unused);
    49fc:	4836      	ldr	r0, [pc, #216]	; (4ad8 <_Z12setupNewGamev+0x134>)
    49fe:	4937      	ldr	r1, [pc, #220]	; (4adc <_Z12setupNewGamev+0x138>)
    4a00:	320b      	adds	r2, #11
  for (int i = 0; i < 7; i++) {
    tableau[i].empty();
  }

  // Put the cursor at the stock.
  activeLocation = stock;
    4a02:	701c      	strb	r4, [r3, #0]
  bool unused;
  getCursorDestination(cursorX, cursorY, unused);
    4a04:	f7ff fca2 	bl	434c <_Z20getCursorDestinationRhS_Rb>

  // Initialize the data structure to deal out the initial board.
  cardAnimationCount = 0;
    4a08:	4b35      	ldr	r3, [pc, #212]	; (4ae0 <_Z12setupNewGamev+0x13c>)
    4a0a:	701c      	strb	r4, [r3, #0]
    4a0c:	0063      	lsls	r3, r4, #1
    4a0e:	b29b      	uxth	r3, r3
    4a10:	482f      	ldr	r0, [pc, #188]	; (4ad0 <_Z12setupNewGamev+0x12c>)
    4a12:	9301      	str	r3, [sp, #4]
    4a14:	0123      	lsls	r3, r4, #4
    4a16:	181b      	adds	r3, r3, r0
    4a18:	9300      	str	r3, [sp, #0]
  
  talonDeck.empty();
  stockDeck.newDeck();
  stockDeck.shuffle();
  for (int i = 0; i < 4; i++) {
    foundations[i].empty();
    4a1a:	1c25      	adds	r5, r4, #0

  // Initialize the data structure to deal out the initial board.
  cardAnimationCount = 0;
  for (int i = 0; i < 7; i++) {
    for (int j = i; j < 7; j++) {
      Card card = stockDeck.removeTopCard();
    4a1c:	482a      	ldr	r0, [pc, #168]	; (4ac8 <_Z12setupNewGamev+0x124>)
    4a1e:	f000 fdf6 	bl	560e <_ZN4Pile13removeTopCardEv>
    4a22:	4669      	mov	r1, sp
    4a24:	7208      	strb	r0, [r1, #8]
      if (i == j) card.flip();
    4a26:	42ac      	cmp	r4, r5
    4a28:	d102      	bne.n	4a30 <_Z12setupNewGamev+0x8c>
    4a2a:	a802      	add	r0, sp, #8
    4a2c:	f7ff fb91 	bl	4152 <_ZN4Card4flipEv>
      cardAnimations[cardAnimationCount] = CardAnimation();
    4a30:	4a2b      	ldr	r2, [pc, #172]	; (4ae0 <_Z12setupNewGamev+0x13c>)
    4a32:	260a      	movs	r6, #10
    4a34:	7817      	ldrb	r7, [r2, #0]
    4a36:	2100      	movs	r1, #0
    4a38:	1c32      	adds	r2, r6, #0
    4a3a:	4377      	muls	r7, r6
    4a3c:	a803      	add	r0, sp, #12
    4a3e:	f00c fdc5 	bl	115cc <memset>
Pile foundations[4] = { Pile(13), Pile(13), Pile(13), Pile(13) };
Pile tableau[7] = { Pile(20), Pile(20), Pile(20), Pile(20), Pile(20), Pile(20), Pile(20) };

UndoStack undo;

struct CardAnimation {
    4a42:	a803      	add	r0, sp, #12
    4a44:	f7ff fbb6 	bl	41b4 <_ZN4CardC1Ev>
  cardAnimationCount = 0;
  for (int i = 0; i < 7; i++) {
    for (int j = i; j < 7; j++) {
      Card card = stockDeck.removeTopCard();
      if (i == j) card.flip();
      cardAnimations[cardAnimationCount] = CardAnimation();
    4a48:	4b26      	ldr	r3, [pc, #152]	; (4ae4 <_Z12setupNewGamev+0x140>)
    4a4a:	1c32      	adds	r2, r6, #0
    4a4c:	19d8      	adds	r0, r3, r7
    4a4e:	a903      	add	r1, sp, #12
    4a50:	f00c fdb3 	bl	115ba <memcpy>
      cardAnimations[cardAnimationCount].x = 2;
    4a54:	4822      	ldr	r0, [pc, #136]	; (4ae0 <_Z12setupNewGamev+0x13c>)
    4a56:	4923      	ldr	r1, [pc, #140]	; (4ae4 <_Z12setupNewGamev+0x140>)
    4a58:	7802      	ldrb	r2, [r0, #0]
      cardAnimations[cardAnimationCount].y = 2;
      cardAnimations[cardAnimationCount].destX = tableau[j].x;
    4a5a:	9800      	ldr	r0, [sp, #0]
  for (int i = 0; i < 7; i++) {
    for (int j = i; j < 7; j++) {
      Card card = stockDeck.removeTopCard();
      if (i == j) card.flip();
      cardAnimations[cardAnimationCount] = CardAnimation();
      cardAnimations[cardAnimationCount].x = 2;
    4a5c:	4356      	muls	r6, r2
    4a5e:	198b      	adds	r3, r1, r6
      cardAnimations[cardAnimationCount].y = 2;
      cardAnimations[cardAnimationCount].destX = tableau[j].x;
    4a60:	8801      	ldrh	r1, [r0, #0]
  for (int i = 0; i < 7; i++) {
    for (int j = i; j < 7; j++) {
      Card card = stockDeck.removeTopCard();
      if (i == j) card.flip();
      cardAnimations[cardAnimationCount] = CardAnimation();
      cardAnimations[cardAnimationCount].x = 2;
    4a62:	2702      	movs	r7, #2
      cardAnimations[cardAnimationCount].y = 2;
      cardAnimations[cardAnimationCount].destX = tableau[j].x;
    4a64:	80d9      	strh	r1, [r3, #6]
      cardAnimations[cardAnimationCount].destY = tableau[j].y + 2 * i;
    4a66:	8841      	ldrh	r1, [r0, #2]
    4a68:	9801      	ldr	r0, [sp, #4]
      cardAnimations[cardAnimationCount].tableauIndex = j;
    4a6a:	705d      	strb	r5, [r3, #1]
      if (i == j) card.flip();
      cardAnimations[cardAnimationCount] = CardAnimation();
      cardAnimations[cardAnimationCount].x = 2;
      cardAnimations[cardAnimationCount].y = 2;
      cardAnimations[cardAnimationCount].destX = tableau[j].x;
      cardAnimations[cardAnimationCount].destY = tableau[j].y + 2 * i;
    4a6c:	1841      	adds	r1, r0, r1
    4a6e:	8119      	strh	r1, [r3, #8]
      cardAnimations[cardAnimationCount].tableauIndex = j;
      cardAnimations[cardAnimationCount].card = card;
    4a70:	4669      	mov	r1, sp
  for (int i = 0; i < 7; i++) {
    for (int j = i; j < 7; j++) {
      Card card = stockDeck.removeTopCard();
      if (i == j) card.flip();
      cardAnimations[cardAnimationCount] = CardAnimation();
      cardAnimations[cardAnimationCount].x = 2;
    4a72:	805f      	strh	r7, [r3, #2]
      cardAnimations[cardAnimationCount].y = 2;
    4a74:	809f      	strh	r7, [r3, #4]
      cardAnimations[cardAnimationCount].destX = tableau[j].x;
      cardAnimations[cardAnimationCount].destY = tableau[j].y + 2 * i;
      cardAnimations[cardAnimationCount].tableauIndex = j;
      cardAnimations[cardAnimationCount].card = card;
    4a76:	7a0b      	ldrb	r3, [r1, #8]
      cardAnimationCount++;
    4a78:	4919      	ldr	r1, [pc, #100]	; (4ae0 <_Z12setupNewGamev+0x13c>)
    4a7a:	3201      	adds	r2, #1
    4a7c:	700a      	strb	r2, [r1, #0]
    4a7e:	9a00      	ldr	r2, [sp, #0]
      cardAnimations[cardAnimationCount].x = 2;
      cardAnimations[cardAnimationCount].y = 2;
      cardAnimations[cardAnimationCount].destX = tableau[j].x;
      cardAnimations[cardAnimationCount].destY = tableau[j].y + 2 * i;
      cardAnimations[cardAnimationCount].tableauIndex = j;
      cardAnimations[cardAnimationCount].card = card;
    4a80:	4818      	ldr	r0, [pc, #96]	; (4ae4 <_Z12setupNewGamev+0x140>)
    4a82:	3210      	adds	r2, #16
  getCursorDestination(cursorX, cursorY, unused);

  // Initialize the data structure to deal out the initial board.
  cardAnimationCount = 0;
  for (int i = 0; i < 7; i++) {
    for (int j = i; j < 7; j++) {
    4a84:	3501      	adds	r5, #1
      cardAnimations[cardAnimationCount].x = 2;
      cardAnimations[cardAnimationCount].y = 2;
      cardAnimations[cardAnimationCount].destX = tableau[j].x;
      cardAnimations[cardAnimationCount].destY = tableau[j].y + 2 * i;
      cardAnimations[cardAnimationCount].tableauIndex = j;
      cardAnimations[cardAnimationCount].card = card;
    4a86:	5433      	strb	r3, [r6, r0]
    4a88:	9200      	str	r2, [sp, #0]
  getCursorDestination(cursorX, cursorY, unused);

  // Initialize the data structure to deal out the initial board.
  cardAnimationCount = 0;
  for (int i = 0; i < 7; i++) {
    for (int j = i; j < 7; j++) {
    4a8a:	2d07      	cmp	r5, #7
    4a8c:	d1c6      	bne.n	4a1c <_Z12setupNewGamev+0x78>
  bool unused;
  getCursorDestination(cursorX, cursorY, unused);

  // Initialize the data structure to deal out the initial board.
  cardAnimationCount = 0;
  for (int i = 0; i < 7; i++) {
    4a8e:	3401      	adds	r4, #1
    4a90:	2c07      	cmp	r4, #7
    4a92:	d1bb      	bne.n	4a0c <_Z12setupNewGamev+0x68>
      cardAnimations[cardAnimationCount].tableauIndex = j;
      cardAnimations[cardAnimationCount].card = card;
      cardAnimationCount++;
    }
  }
  cardAnimationCount = 0;
    4a94:	4912      	ldr	r1, [pc, #72]	; (4ae0 <_Z12setupNewGamev+0x13c>)
    4a96:	2400      	movs	r4, #0
    4a98:	700c      	strb	r4, [r1, #0]

  drawBoard();
    4a9a:	f7ff ff13 	bl	48c4 <_Z9drawBoardv>
  // Determine easy or hard game.
  cardsToDraw = menu(newGameMenu, 2, false) == 0 ? 1 : 3;
    4a9e:	4812      	ldr	r0, [pc, #72]	; (4ae8 <_Z12setupNewGamev+0x144>)
    4aa0:	1c39      	adds	r1, r7, #0
    4aa2:	1c22      	adds	r2, r4, #0
    4aa4:	f001 f818 	bl	5ad8 <_Z4menuPKPKcib>
    4aa8:	2303      	movs	r3, #3
    4aaa:	42a0      	cmp	r0, r4
    4aac:	d100      	bne.n	4ab0 <_Z12setupNewGamev+0x10c>
    4aae:	2301      	movs	r3, #1
    4ab0:	4a0e      	ldr	r2, [pc, #56]	; (4aec <_Z12setupNewGamev+0x148>)
    4ab2:	7013      	strb	r3, [r2, #0]
  mode = dealing; 
    4ab4:	4b0e      	ldr	r3, [pc, #56]	; (4af0 <_Z12setupNewGamev+0x14c>)
    4ab6:	2200      	movs	r2, #0
    4ab8:	701a      	strb	r2, [r3, #0]
}
    4aba:	b007      	add	sp, #28
    4abc:	bdf0      	pop	{r4, r5, r6, r7, pc}
    4abe:	46c0      	nop			; (mov r8, r8)
    4ac0:	20000acc 	.word	0x20000acc
    4ac4:	20000290 	.word	0x20000290
    4ac8:	20000280 	.word	0x20000280
    4acc:	20000438 	.word	0x20000438
    4ad0:	200002a8 	.word	0x200002a8
    4ad4:	2000027c 	.word	0x2000027c
    4ad8:	200002a1 	.word	0x200002a1
    4adc:	200002a2 	.word	0x200002a2
    4ae0:	200001ec 	.word	0x200001ec
    4ae4:	20000318 	.word	0x20000318
    4ae8:	00011914 	.word	0x00011914
    4aec:	20000004 	.word	0x20000004
    4af0:	200002a0 	.word	0x200002a0

00004af4 <setup>:
};

const uint16_t patternA[] = {0x0045, 0x0118, 0x0000};
const uint16_t patternB[] = {0x0045, 0x0108, 0x0000};

void setup() {
    4af4:	b510      	push	{r4, lr}
  gb.begin();
    4af6:	4c1d      	ldr	r4, [pc, #116]	; (4b6c <setup+0x78>)
    4af8:	1c20      	adds	r0, r4, #0
    4afa:	f002 facd 	bl	7098 <_ZN14Gamebuino_Meta9Gamebuino5beginEv>
  gb.setFrameRate(30);
    4afe:	1c20      	adds	r0, r4, #0
    4b00:	211e      	movs	r1, #30
    4b02:	f001 f94a 	bl	5d9a <_ZN14Gamebuino_Meta9Gamebuino12setFrameRateEh>

  initSprites();
    4b06:	f000 fddf 	bl	56c8 <_Z11initSpritesv>
  
  // Initialize positions of piles.
  for (int i = 0; i < 4; i++) {
    foundations[i].x = 35 + i * 11;
    4b0a:	4b19      	ldr	r3, [pc, #100]	; (4b70 <setup+0x7c>)
    4b0c:	202e      	movs	r0, #46	; 0x2e
    4b0e:	2223      	movs	r2, #35	; 0x23
    4b10:	8218      	strh	r0, [r3, #16]
    4b12:	2039      	movs	r0, #57	; 0x39
    4b14:	801a      	strh	r2, [r3, #0]
    4b16:	8418      	strh	r0, [r3, #32]
    foundations[i].y = 2;
    foundations[i].isTableau = false;
    4b18:	2200      	movs	r2, #0
    4b1a:	1d58      	adds	r0, r3, #5
  initSprites();
  
  // Initialize positions of piles.
  for (int i = 0; i < 4; i++) {
    foundations[i].x = 35 + i * 11;
    foundations[i].y = 2;
    4b1c:	2102      	movs	r1, #2
    foundations[i].isTableau = false;
    4b1e:	77c2      	strb	r2, [r0, #31]

  initSprites();
  
  // Initialize positions of piles.
  for (int i = 0; i < 4; i++) {
    foundations[i].x = 35 + i * 11;
    4b20:	2044      	movs	r0, #68	; 0x44
    foundations[i].y = 2;
    4b22:	8059      	strh	r1, [r3, #2]
    foundations[i].isTableau = false;
    4b24:	711a      	strb	r2, [r3, #4]
  initSprites();
  
  // Initialize positions of piles.
  for (int i = 0; i < 4; i++) {
    foundations[i].x = 35 + i * 11;
    foundations[i].y = 2;
    4b26:	8259      	strh	r1, [r3, #18]
    foundations[i].isTableau = false;
    4b28:	751a      	strb	r2, [r3, #20]
  initSprites();
  
  // Initialize positions of piles.
  for (int i = 0; i < 4; i++) {
    foundations[i].x = 35 + i * 11;
    foundations[i].y = 2;
    4b2a:	8459      	strh	r1, [r3, #34]	; 0x22

  initSprites();
  
  // Initialize positions of piles.
  for (int i = 0; i < 4; i++) {
    foundations[i].x = 35 + i * 11;
    4b2c:	8618      	strh	r0, [r3, #48]	; 0x30
    foundations[i].y = 2;
    4b2e:	8659      	strh	r1, [r3, #50]	; 0x32
    foundations[i].isTableau = false;
    4b30:	3334      	adds	r3, #52	; 0x34
    4b32:	701a      	strb	r2, [r3, #0]
    4b34:	1c13      	adds	r3, r2, #0
    4b36:	200b      	movs	r0, #11
    4b38:	4358      	muls	r0, r3
  }
  for (int i = 0; i < 7; i++) {
    tableau[i].x = i * 11 + 2;
    4b3a:	490e      	ldr	r1, [pc, #56]	; (4b74 <setup+0x80>)
    4b3c:	011a      	lsls	r2, r3, #4
    4b3e:	3002      	adds	r0, #2
    4b40:	5250      	strh	r0, [r2, r1]
    4b42:	188a      	adds	r2, r1, r2
    tableau[i].y = 18;
    4b44:	2112      	movs	r1, #18
    4b46:	8051      	strh	r1, [r2, #2]
    tableau[i].isTableau = true;
    4b48:	2101      	movs	r1, #1
  for (int i = 0; i < 4; i++) {
    foundations[i].x = 35 + i * 11;
    foundations[i].y = 2;
    foundations[i].isTableau = false;
  }
  for (int i = 0; i < 7; i++) {
    4b4a:	185b      	adds	r3, r3, r1
    tableau[i].x = i * 11 + 2;
    tableau[i].y = 18;
    tableau[i].isTableau = true;
    4b4c:	7111      	strb	r1, [r2, #4]
  for (int i = 0; i < 4; i++) {
    foundations[i].x = 35 + i * 11;
    foundations[i].y = 2;
    foundations[i].isTableau = false;
  }
  for (int i = 0; i < 7; i++) {
    4b4e:	2b07      	cmp	r3, #7
    4b50:	d1f1      	bne.n	4b36 <setup+0x42>
    tableau[i].x = i * 11 + 2;
    tableau[i].y = 18;
    tableau[i].isTableau = true;
  }
  stockDeck.x = 2;
    4b52:	4a09      	ldr	r2, [pc, #36]	; (4b78 <setup+0x84>)
    4b54:	2302      	movs	r3, #2
  stockDeck.y = 2;
  stockDeck.isTableau = false;
    4b56:	2100      	movs	r1, #0
  for (int i = 0; i < 7; i++) {
    tableau[i].x = i * 11 + 2;
    tableau[i].y = 18;
    tableau[i].isTableau = true;
  }
  stockDeck.x = 2;
    4b58:	8013      	strh	r3, [r2, #0]
  stockDeck.y = 2;
    4b5a:	8053      	strh	r3, [r2, #2]
  stockDeck.isTableau = false;
    4b5c:	7111      	strb	r1, [r2, #4]
  talonDeck.x = 13;
    4b5e:	4a07      	ldr	r2, [pc, #28]	; (4b7c <setup+0x88>)
    4b60:	210d      	movs	r1, #13
    4b62:	8011      	strh	r1, [r2, #0]
  talonDeck.y = 2;
    4b64:	8053      	strh	r3, [r2, #2]
  stockDeck.isTableau = false;

  setupNewGame();
    4b66:	f7ff ff1d 	bl	49a4 <_Z12setupNewGamev>
  
  // testWinningAnimation();
}
    4b6a:	bd10      	pop	{r4, pc}
    4b6c:	20000a3c 	.word	0x20000a3c
    4b70:	20000438 	.word	0x20000438
    4b74:	200002a8 	.word	0x200002a8
    4b78:	20000280 	.word	0x20000280
    4b7c:	20000290 	.word	0x20000290

00004b80 <_Z11drawWonGamev>:
    }
    if (mode != wonGame) mode = selecting;
  }
}

void drawWonGame() {
    4b80:	b5f7      	push	{r0, r1, r2, r4, r5, r6, r7, lr}
  // Bounce the cards from the foundations, one at a time.

  // Apply gravity
  bounce.yVelocity += 0x0080;
    4b82:	4c41      	ldr	r4, [pc, #260]	; (4c88 <_Z11drawWonGamev+0x108>)
  bounce.x += bounce.xVelocity;
  bounce.y += bounce.yVelocity;

  // If the card is at the bottom of the screen, reverse the y velocity and scale by 80%.
  if (bounce.y + (14 << 8) > gb.display.width() << 8) {
    4b84:	4d41      	ldr	r5, [pc, #260]	; (4c8c <_Z11drawWonGamev+0x10c>)
void drawWonGame() {
  // Bounce the cards from the foundations, one at a time.

  // Apply gravity
  bounce.yVelocity += 0x0080;
  bounce.x += bounce.xVelocity;
    4b86:	88e2      	ldrh	r2, [r4, #6]
    4b88:	8863      	ldrh	r3, [r4, #2]

void drawWonGame() {
  // Bounce the cards from the foundations, one at a time.

  // Apply gravity
  bounce.yVelocity += 0x0080;
    4b8a:	8926      	ldrh	r6, [r4, #8]
  bounce.x += bounce.xVelocity;
    4b8c:	18d3      	adds	r3, r2, r3
    4b8e:	8063      	strh	r3, [r4, #2]

void drawWonGame() {
  // Bounce the cards from the foundations, one at a time.

  // Apply gravity
  bounce.yVelocity += 0x0080;
    4b90:	3680      	adds	r6, #128	; 0x80
  bounce.x += bounce.xVelocity;
  bounce.y += bounce.yVelocity;
    4b92:	88a3      	ldrh	r3, [r4, #4]

void drawWonGame() {
  // Bounce the cards from the foundations, one at a time.

  // Apply gravity
  bounce.yVelocity += 0x0080;
    4b94:	b2b6      	uxth	r6, r6
    4b96:	8126      	strh	r6, [r4, #8]
  bounce.x += bounce.xVelocity;
  bounce.y += bounce.yVelocity;
    4b98:	18f6      	adds	r6, r6, r3
    4b9a:	b2b6      	uxth	r6, r6

  // If the card is at the bottom of the screen, reverse the y velocity and scale by 80%.
  if (bounce.y + (14 << 8) > gb.display.width() << 8) {
    4b9c:	1c28      	adds	r0, r5, #0
  // Bounce the cards from the foundations, one at a time.

  // Apply gravity
  bounce.yVelocity += 0x0080;
  bounce.x += bounce.xVelocity;
  bounce.y += bounce.yVelocity;
    4b9e:	80a6      	strh	r6, [r4, #4]

  // If the card is at the bottom of the screen, reverse the y velocity and scale by 80%.
  if (bounce.y + (14 << 8) > gb.display.width() << 8) {
    4ba0:	f005 fa32 	bl	a008 <_ZNK14Gamebuino_Meta8Graphics5widthEv>
    4ba4:	4a3a      	ldr	r2, [pc, #232]	; (4c90 <_Z11drawWonGamev+0x110>)
    4ba6:	b236      	sxth	r6, r6
    4ba8:	18b6      	adds	r6, r6, r2
    4baa:	0200      	lsls	r0, r0, #8
    4bac:	4286      	cmp	r6, r0
    4bae:	db0f      	blt.n	4bd0 <_Z11drawWonGamev+0x50>
    bounce.y = (gb.display.height() - 14) << 8;
    4bb0:	1c28      	adds	r0, r5, #0
    4bb2:	f005 fa39 	bl	a028 <_ZNK14Gamebuino_Meta8Graphics6heightEv>
    4bb6:	380e      	subs	r0, #14
    4bb8:	0200      	lsls	r0, r0, #8
    4bba:	80a0      	strh	r0, [r4, #4]
    bounce.yVelocity = -bounce.yVelocity * 4 / 5;
    4bbc:	2308      	movs	r3, #8
    4bbe:	5ee0      	ldrsh	r0, [r4, r3]
    4bc0:	2105      	movs	r1, #5
    4bc2:	0080      	lsls	r0, r0, #2
    4bc4:	4240      	negs	r0, r0
    4bc6:	f00c fc35 	bl	11434 <__aeabi_idiv>
    4bca:	8120      	strh	r0, [r4, #8]
    playSoundB();
    4bcc:	f7ff fc32 	bl	4434 <_Z10playSoundBv>
  }
  drawCard(bounce.x >> 8, bounce.y >> 8, bounce.card);
    4bd0:	2003      	movs	r0, #3
    4bd2:	2105      	movs	r1, #5
    4bd4:	5661      	ldrsb	r1, [r4, r1]
    4bd6:	7822      	ldrb	r2, [r4, #0]
    4bd8:	5620      	ldrsb	r0, [r4, r0]
    4bda:	f7ff fd13 	bl	4604 <_Z8drawCardss4Card>

  int val = (bounce.y * 255)* 3 / ((gb.display.height() - 14) << 8);
    4bde:	2204      	movs	r2, #4
    4be0:	5ea3      	ldrsh	r3, [r4, r2]
    4be2:	1c28      	adds	r0, r5, #0
    4be4:	005a      	lsls	r2, r3, #1
    4be6:	18d3      	adds	r3, r2, r3
    4be8:	021c      	lsls	r4, r3, #8
    4bea:	1ae4      	subs	r4, r4, r3
    4bec:	f005 fa1c 	bl	a028 <_ZNK14Gamebuino_Meta8Graphics6heightEv>
    4bf0:	1c01      	adds	r1, r0, #0
    4bf2:	390e      	subs	r1, #14
    4bf4:	1c20      	adds	r0, r4, #0
    4bf6:	0209      	lsls	r1, r1, #8
    4bf8:	f00c fc1c 	bl	11434 <__aeabi_idiv>
  for (int i = 0; i < 4; i++) {
    4bfc:	2500      	movs	r5, #0
    4bfe:	4246      	negs	r6, r0
    4c00:	1c04      	adds	r4, r0, #0
    Color c = hsvToRgb565(gb.frameCount % 256, 255, max(255 - abs(i * 255 - val), 0));
    4c02:	4b24      	ldr	r3, [pc, #144]	; (4c94 <_Z11drawWonGamev+0x114>)
    4c04:	33fc      	adds	r3, #252	; 0xfc
    4c06:	6e18      	ldr	r0, [r3, #96]	; 0x60
    4c08:	b2c0      	uxtb	r0, r0
    4c0a:	2e00      	cmp	r6, #0
    4c0c:	dd03      	ble.n	4c16 <_Z11drawWonGamev+0x96>
    4c0e:	1c23      	adds	r3, r4, #0
    4c10:	33fe      	adds	r3, #254	; 0xfe
    4c12:	da05      	bge.n	4c20 <_Z11drawWonGamev+0xa0>
    4c14:	e002      	b.n	4c1c <_Z11drawWonGamev+0x9c>
    4c16:	1c32      	adds	r2, r6, #0
    4c18:	32fe      	adds	r2, #254	; 0xfe
    4c1a:	da04      	bge.n	4c26 <_Z11drawWonGamev+0xa6>
    4c1c:	2200      	movs	r2, #0
    4c1e:	e004      	b.n	4c2a <_Z11drawWonGamev+0xaa>
    4c20:	1e62      	subs	r2, r4, #1
    4c22:	b2d2      	uxtb	r2, r2
    4c24:	e001      	b.n	4c2a <_Z11drawWonGamev+0xaa>
    4c26:	43e2      	mvns	r2, r4
    4c28:	b2d2      	uxtb	r2, r2
    4c2a:	21ff      	movs	r1, #255	; 0xff
    4c2c:	f000 fe53 	bl	58d6 <_Z11hsvToRgb565hhh>
    gb.lights.drawPixel(0, i, c);
    4c30:	4f19      	ldr	r7, [pc, #100]	; (4c98 <_Z11drawWonGamev+0x118>)
    4c32:	b22b      	sxth	r3, r5
  }
  drawCard(bounce.x >> 8, bounce.y >> 8, bounce.card);

  int val = (bounce.y * 255)* 3 / ((gb.display.height() - 14) << 8);
  for (int i = 0; i < 4; i++) {
    Color c = hsvToRgb565(gb.frameCount % 256, 255, max(255 - abs(i * 255 - val), 0));
    4c34:	9000      	str	r0, [sp, #0]
    gb.lights.drawPixel(0, i, c);
    4c36:	1c1a      	adds	r2, r3, #0
    4c38:	9301      	str	r3, [sp, #4]
    4c3a:	1c38      	adds	r0, r7, #0
    4c3c:	2100      	movs	r1, #0
    4c3e:	9b00      	ldr	r3, [sp, #0]
    4c40:	f005 f89a 	bl	9d78 <_ZN14Gamebuino_Meta8Graphics9drawPixelEssNS_5ColorE>
    playSoundB();
  }
  drawCard(bounce.x >> 8, bounce.y >> 8, bounce.card);

  int val = (bounce.y * 255)* 3 / ((gb.display.height() - 14) << 8);
  for (int i = 0; i < 4; i++) {
    4c44:	3501      	adds	r5, #1
    Color c = hsvToRgb565(gb.frameCount % 256, 255, max(255 - abs(i * 255 - val), 0));
    gb.lights.drawPixel(0, i, c);
    gb.lights.drawPixel(1, i, c);
    4c46:	1c38      	adds	r0, r7, #0
    4c48:	2101      	movs	r1, #1
    4c4a:	9a01      	ldr	r2, [sp, #4]
    4c4c:	9b00      	ldr	r3, [sp, #0]
    4c4e:	f005 f893 	bl	9d78 <_ZN14Gamebuino_Meta8Graphics9drawPixelEssNS_5ColorE>
    4c52:	36ff      	adds	r6, #255	; 0xff
    4c54:	3cff      	subs	r4, #255	; 0xff
    playSoundB();
  }
  drawCard(bounce.x >> 8, bounce.y >> 8, bounce.card);

  int val = (bounce.y * 255)* 3 / ((gb.display.height() - 14) << 8);
  for (int i = 0; i < 4; i++) {
    4c56:	2d04      	cmp	r5, #4
    4c58:	d1d3      	bne.n	4c02 <_Z11drawWonGamev+0x82>
    gb.lights.drawPixel(0, i, c);
    gb.lights.drawPixel(1, i, c);
  }
  
  // Check to see if the current card is off the screen.
  if (bounce.x + (10 << 8) < 0 || bounce.x > gb.display.width() << 8) {
    4c5a:	4b0b      	ldr	r3, [pc, #44]	; (4c88 <_Z11drawWonGamev+0x108>)
    4c5c:	2202      	movs	r2, #2
    4c5e:	5e9c      	ldrsh	r4, [r3, r2]
    4c60:	4b0e      	ldr	r3, [pc, #56]	; (4c9c <_Z11drawWonGamev+0x11c>)
    4c62:	429c      	cmp	r4, r3
    4c64:	db06      	blt.n	4c74 <_Z11drawWonGamev+0xf4>
    4c66:	1c38      	adds	r0, r7, #0
    4c68:	3880      	subs	r0, #128	; 0x80
    4c6a:	f005 f9cd 	bl	a008 <_ZNK14Gamebuino_Meta8Graphics5widthEv>
    4c6e:	0200      	lsls	r0, r0, #8
    4c70:	4284      	cmp	r4, r0
    4c72:	dd08      	ble.n	4c86 <_Z11drawWonGamev+0x106>
    if (!initializeCardBounce()) {
    4c74:	f7ff facc 	bl	4210 <_Z20initializeCardBouncev>
    4c78:	1e01      	subs	r1, r0, #0
    4c7a:	d104      	bne.n	4c86 <_Z11drawWonGamev+0x106>
      gb.lights.fill(BLACK);
    4c7c:	1c38      	adds	r0, r7, #0
    4c7e:	f005 f86d 	bl	9d5c <_ZN14Gamebuino_Meta8Graphics4fillENS_5ColorE>
      setupNewGame();
    4c82:	f7ff fe8f 	bl	49a4 <_Z12setupNewGamev>
    }
  }
}
    4c86:	bdf7      	pop	{r0, r1, r2, r4, r5, r6, r7, pc}
    4c88:	20000478 	.word	0x20000478
    4c8c:	20000a4c 	.word	0x20000a4c
    4c90:	00000dff 	.word	0x00000dff
    4c94:	20000a3c 	.word	0x20000a3c
    4c98:	20000acc 	.word	0x20000acc
    4c9c:	fffff600 	.word	0xfffff600

00004ca0 <loop>:
  initializeCardBounce();
  drawBoard(); 
  mode = wonGame;
}

void loop() {
    4ca0:	b510      	push	{r4, lr}
  if (gb.update()) {
    4ca2:	480b      	ldr	r0, [pc, #44]	; (4cd0 <loop+0x30>)
    4ca4:	f001 fe76 	bl	6994 <_ZN14Gamebuino_Meta9Gamebuino6updateEv>
    4ca8:	2800      	cmp	r0, #0
    4caa:	d00f      	beq.n	4ccc <loop+0x2c>
    // Handle key presses for various modes.
    buttonJumpTable[mode]();
    4cac:	4c09      	ldr	r4, [pc, #36]	; (4cd4 <loop+0x34>)
    4cae:	4b0a      	ldr	r3, [pc, #40]	; (4cd8 <loop+0x38>)
    4cb0:	7822      	ldrb	r2, [r4, #0]
    4cb2:	0092      	lsls	r2, r2, #2
    4cb4:	58d3      	ldr	r3, [r2, r3]
    4cb6:	4798      	blx	r3
    
    // Draw the board.
    if (mode != wonGame) {
    4cb8:	7823      	ldrb	r3, [r4, #0]
    4cba:	2b06      	cmp	r3, #6
    4cbc:	d001      	beq.n	4cc2 <loop+0x22>
      drawBoard();      
    4cbe:	f7ff fe01 	bl	48c4 <_Z9drawBoardv>
    }
    
    // Draw other things based on the current state of the game.
    drawJumpTable[mode]();
    4cc2:	7822      	ldrb	r2, [r4, #0]
    4cc4:	4b05      	ldr	r3, [pc, #20]	; (4cdc <loop+0x3c>)
    4cc6:	0092      	lsls	r2, r2, #2
    4cc8:	58d3      	ldr	r3, [r2, r3]
    4cca:	4798      	blx	r3

    // displayCpuLoad();
  }
}
    4ccc:	bd10      	pop	{r4, pc}
    4cce:	46c0      	nop			; (mov r8, r8)
    4cd0:	20000a3c 	.word	0x20000a3c
    4cd4:	200002a0 	.word	0x200002a0
    4cd8:	20000008 	.word	0x20000008
    4cdc:	20000024 	.word	0x20000024

00004ce0 <_Z12checkWonGamev>:
    tableau[i].addCard(card);
  }
  return revealed;
}

void checkWonGame() {
    4ce0:	b510      	push	{r4, lr}
  // Check to see if all foundations are full
  if (foundations[0].getCardCount() == 13 && foundations[1].getCardCount() == 13 &&
    4ce2:	4c16      	ldr	r4, [pc, #88]	; (4d3c <_Z12checkWonGamev+0x5c>)
    4ce4:	1c20      	adds	r0, r4, #0
    4ce6:	f000 fc6f 	bl	55c8 <_ZNK4Pile12getCardCountEv>
    foundations[2].getCardCount() == 13 && foundations[3].getCardCount() == 13) {
    4cea:	280d      	cmp	r0, #13
    4cec:	d125      	bne.n	4d3a <_Z12checkWonGamev+0x5a>
  return revealed;
}

void checkWonGame() {
  // Check to see if all foundations are full
  if (foundations[0].getCardCount() == 13 && foundations[1].getCardCount() == 13 &&
    4cee:	1c20      	adds	r0, r4, #0
    4cf0:	3010      	adds	r0, #16
    4cf2:	f000 fc69 	bl	55c8 <_ZNK4Pile12getCardCountEv>
    4cf6:	280d      	cmp	r0, #13
    4cf8:	d11f      	bne.n	4d3a <_Z12checkWonGamev+0x5a>
    foundations[2].getCardCount() == 13 && foundations[3].getCardCount() == 13) {
    4cfa:	1c20      	adds	r0, r4, #0
    4cfc:	3020      	adds	r0, #32
    4cfe:	f000 fc63 	bl	55c8 <_ZNK4Pile12getCardCountEv>
  return revealed;
}

void checkWonGame() {
  // Check to see if all foundations are full
  if (foundations[0].getCardCount() == 13 && foundations[1].getCardCount() == 13 &&
    4d02:	280d      	cmp	r0, #13
    4d04:	d119      	bne.n	4d3a <_Z12checkWonGamev+0x5a>
    foundations[2].getCardCount() == 13 && foundations[3].getCardCount() == 13) {
    4d06:	1c20      	adds	r0, r4, #0
    4d08:	3030      	adds	r0, #48	; 0x30
    4d0a:	f000 fc5d 	bl	55c8 <_ZNK4Pile12getCardCountEv>
    4d0e:	280d      	cmp	r0, #13
    4d10:	d113      	bne.n	4d3a <_Z12checkWonGamev+0x5a>
      initializeCardBounce();
    4d12:	f7ff fa7d 	bl	4210 <_Z20initializeCardBouncev>
      drawBoard(); 
    4d16:	f7ff fdd5 	bl	48c4 <_Z9drawBoardv>
      mode = wonGame;
    4d1a:	4b09      	ldr	r3, [pc, #36]	; (4d40 <_Z12checkWonGamev+0x60>)
    4d1c:	2206      	movs	r2, #6
    4d1e:	701a      	strb	r2, [r3, #0]
      if (cardsToDraw == 1) {
    4d20:	4b08      	ldr	r3, [pc, #32]	; (4d44 <_Z12checkWonGamev+0x64>)
    4d22:	781b      	ldrb	r3, [r3, #0]
    4d24:	2b01      	cmp	r3, #1
    4d26:	d104      	bne.n	4d32 <_Z12checkWonGamev+0x52>
        easyGamesWon++;
    4d28:	4b07      	ldr	r3, [pc, #28]	; (4d48 <_Z12checkWonGamev+0x68>)
    4d2a:	681a      	ldr	r2, [r3, #0]
    4d2c:	3201      	adds	r2, #1
    4d2e:	601a      	str	r2, [r3, #0]
    4d30:	e003      	b.n	4d3a <_Z12checkWonGamev+0x5a>
        // writeEeprom(false);
      }
      else {
        hardGamesWon++;
    4d32:	4b06      	ldr	r3, [pc, #24]	; (4d4c <_Z12checkWonGamev+0x6c>)
    4d34:	681a      	ldr	r2, [r3, #0]
    4d36:	3201      	adds	r2, #1
    4d38:	601a      	str	r2, [r3, #0]
        // writeEeprom(false);
      }
  }
}
    4d3a:	bd10      	pop	{r4, pc}
    4d3c:	20000438 	.word	0x20000438
    4d40:	200002a0 	.word	0x200002a0
    4d44:	20000004 	.word	0x20000004
    4d48:	20000434 	.word	0x20000434
    4d4c:	20000430 	.word	0x20000430

00004d50 <_Z15updateAfterPlayv>:
    action.setRevealed();
  }
  undo.pushAction(action);
}

bool updateAfterPlay() {
    4d50:	b513      	push	{r0, r1, r4, lr}
  bool result = revealCards();
    4d52:	f7ff fa39 	bl	41c8 <_Z11revealCardsv>
    4d56:	1c04      	adds	r4, r0, #0
  checkWonGame();
    4d58:	f7ff ffc2 	bl	4ce0 <_Z12checkWonGamev>
  cardIndex = 0;
    4d5c:	4b05      	ldr	r3, [pc, #20]	; (4d74 <_Z15updateAfterPlayv+0x24>)
    4d5e:	2200      	movs	r2, #0
    4d60:	701a      	strb	r2, [r3, #0]
  bool unused;
  getCursorDestination(cursorX, cursorY, unused);
    4d62:	466a      	mov	r2, sp
    4d64:	4804      	ldr	r0, [pc, #16]	; (4d78 <_Z15updateAfterPlayv+0x28>)
    4d66:	4905      	ldr	r1, [pc, #20]	; (4d7c <_Z15updateAfterPlayv+0x2c>)
    4d68:	3207      	adds	r2, #7
    4d6a:	f7ff faef 	bl	434c <_Z20getCursorDestinationRhS_Rb>
  return result;
}
    4d6e:	1c20      	adds	r0, r4, #0
    4d70:	bd16      	pop	{r1, r2, r4, pc}
    4d72:	46c0      	nop			; (mov r8, r8)
    4d74:	200002a4 	.word	0x200002a4
    4d78:	200002a1 	.word	0x200002a1
    4d7c:	200002a2 	.word	0x200002a2

00004d80 <_Z9moveCardsv>:
  }

  handleCommonButtons();
}

void moveCards() {
    4d80:	b5f0      	push	{r4, r5, r6, r7, lr}
    4d82:	b085      	sub	sp, #20
  Pile *pile = getActiveLocationPile();
    4d84:	f7ff fa86 	bl	4294 <_Z21getActiveLocationPilev>
  UndoAction action;
  action.source = sourcePile;
    4d88:	4b12      	ldr	r3, [pc, #72]	; (4dd4 <_Z9moveCardsv+0x54>)
  action.destination = pile;
  action.setCardCount(moving.getCardCount());
    4d8a:	4e13      	ldr	r6, [pc, #76]	; (4dd8 <_Z9moveCardsv+0x58>)
}

void moveCards() {
  Pile *pile = getActiveLocationPile();
  UndoAction action;
  action.source = sourcePile;
    4d8c:	ac01      	add	r4, sp, #4
    4d8e:	681b      	ldr	r3, [r3, #0]

  handleCommonButtons();
}

void moveCards() {
  Pile *pile = getActiveLocationPile();
    4d90:	1c07      	adds	r7, r0, #0
  UndoAction action;
  action.source = sourcePile;
  action.destination = pile;
    4d92:	60a0      	str	r0, [r4, #8]
  action.setCardCount(moving.getCardCount());
    4d94:	1c30      	adds	r0, r6, #0
}

void moveCards() {
  Pile *pile = getActiveLocationPile();
  UndoAction action;
  action.source = sourcePile;
    4d96:	6063      	str	r3, [r4, #4]
  action.destination = pile;
  action.setCardCount(moving.getCardCount());
    4d98:	f000 fc16 	bl	55c8 <_ZNK4Pile12getCardCountEv>

struct UndoAction {
    byte special = 0;
    Pile *source;
    Pile *destination;
    void setCardCount(byte cardCount) { special = (special & 0xf0) | (cardCount & 0x0f); }
    4d9c:	230f      	movs	r3, #15
    4d9e:	1c05      	adds	r5, r0, #0
    4da0:	401d      	ands	r5, r3
  pile->addPile(&moving);
    4da2:	1c38      	adds	r0, r7, #0
    4da4:	1c31      	adds	r1, r6, #0
    4da6:	7025      	strb	r5, [r4, #0]
    4da8:	f000 fc20 	bl	55ec <_ZN4Pile7addPileEPS_>
  mode = selecting;
    4dac:	4b0b      	ldr	r3, [pc, #44]	; (4ddc <_Z9moveCardsv+0x5c>)
    4dae:	2201      	movs	r2, #1
    4db0:	701a      	strb	r2, [r3, #0]
  if (updateAfterPlay()) {
    4db2:	f7ff ffcd 	bl	4d50 <_Z15updateAfterPlayv>
    4db6:	2800      	cmp	r0, #0
    4db8:	d003      	beq.n	4dc2 <_Z9moveCardsv+0x42>
    byte getCardCount() { return special & 0x0f; }
    void setRevealed() { special |= 0x80; }
    4dba:	2380      	movs	r3, #128	; 0x80
    4dbc:	425b      	negs	r3, r3
    4dbe:	431d      	orrs	r5, r3
    4dc0:	7025      	strb	r5, [r4, #0]
    action.setRevealed();
  }
  undo.pushAction(action);
    4dc2:	4807      	ldr	r0, [pc, #28]	; (4de0 <_Z9moveCardsv+0x60>)
    4dc4:	9901      	ldr	r1, [sp, #4]
    4dc6:	6862      	ldr	r2, [r4, #4]
    4dc8:	68a3      	ldr	r3, [r4, #8]
    4dca:	f000 fd42 	bl	5852 <_ZN9UndoStack10pushActionE10UndoAction>
}
    4dce:	b005      	add	sp, #20
    4dd0:	bdf0      	pop	{r4, r5, r6, r7, pc}
    4dd2:	46c0      	nop			; (mov r8, r8)
    4dd4:	20000484 	.word	0x20000484
    4dd8:	200001f0 	.word	0x200001f0
    4ddc:	200002a0 	.word	0x200002a0
    4de0:	20000200 	.word	0x20000200

00004de4 <_Z11performUndov>:
  Card card = source->removeTopCard();
  card.flip();
  destination->addCard(card);
}

void performUndo() {
    4de4:	b5f0      	push	{r4, r5, r6, r7, lr}
  // Make sure there is something to undo.
  if (!undo.isEmpty() && mode == selecting) {
    4de6:	4c23      	ldr	r4, [pc, #140]	; (4e74 <_Z11performUndov+0x90>)
  Card card = source->removeTopCard();
  card.flip();
  destination->addCard(card);
}

void performUndo() {
    4de8:	b085      	sub	sp, #20
  // Make sure there is something to undo.
  if (!undo.isEmpty() && mode == selecting) {
    4dea:	1c20      	adds	r0, r4, #0
    4dec:	f000 fd6d 	bl	58ca <_ZNK9UndoStack7isEmptyEv>
    4df0:	1e07      	subs	r7, r0, #0
    4df2:	d13d      	bne.n	4e70 <_Z11performUndov+0x8c>
    4df4:	4b20      	ldr	r3, [pc, #128]	; (4e78 <_Z11performUndov+0x94>)
    4df6:	781b      	ldrb	r3, [r3, #0]
    4df8:	2b01      	cmp	r3, #1
    4dfa:	d139      	bne.n	4e70 <_Z11performUndov+0x8c>
    UndoAction action = undo.popAction();
    4dfc:	ae01      	add	r6, sp, #4
    4dfe:	1c21      	adds	r1, r4, #0
    4e00:	1c30      	adds	r0, r6, #0
    4e02:	f000 fd45 	bl	5890 <_ZN9UndoStack9popActionEv>
    4e06:	7834      	ldrb	r4, [r6, #0]
    4e08:	9d02      	ldr	r5, [sp, #8]
    // Handle draw from stock.
    if (action.wasDraw()) {
    4e0a:	0663      	lsls	r3, r4, #25
    4e0c:	d424      	bmi.n	4e58 <_Z11performUndov+0x74>
      for (byte i = 0; i < cardsToDraw; i++) {
        drawAndFlip(&talonDeck, &stockDeck);
      }
    }
    // Handle flipped talon.
    else if (action.wasFlippedTalon()) {
    4e0e:	06a3      	lsls	r3, r4, #26
    4e10:	d50a      	bpl.n	4e28 <_Z11performUndov+0x44>
      while (stockDeck.getCardCount() != 0) {
    4e12:	4c1a      	ldr	r4, [pc, #104]	; (4e7c <_Z11performUndov+0x98>)
    4e14:	1c20      	adds	r0, r4, #0
    4e16:	f000 fbd7 	bl	55c8 <_ZNK4Pile12getCardCountEv>
    4e1a:	2800      	cmp	r0, #0
    4e1c:	d019      	beq.n	4e52 <_Z11performUndov+0x6e>
        drawAndFlip(&stockDeck, &talonDeck);
    4e1e:	1c20      	adds	r0, r4, #0
    4e20:	4917      	ldr	r1, [pc, #92]	; (4e80 <_Z11performUndov+0x9c>)
    4e22:	f7ff fb13 	bl	444c <_Z11drawAndFlipP4PileS0_>
    4e26:	e7f4      	b.n	4e12 <_Z11performUndov+0x2e>
      }
    }
    // Handle moving cards from one pile to another.
    else {
      // Handle moved cards resulted in revealing another card.
      if (action.wasRevealed()) {
    4e28:	b263      	sxtb	r3, r4
    4e2a:	2b00      	cmp	r3, #0
    4e2c:	da03      	bge.n	4e36 <_Z11performUndov+0x52>
        drawAndFlip(action.source, action.source);
    4e2e:	1c28      	adds	r0, r5, #0
    4e30:	1c29      	adds	r1, r5, #0
    4e32:	f7ff fb0b 	bl	444c <_Z11drawAndFlipP4PileS0_>
      }
      moving.empty();
    4e36:	4f13      	ldr	r7, [pc, #76]	; (4e84 <_Z11performUndov+0xa0>)
    4e38:	1c38      	adds	r0, r7, #0
    4e3a:	f000 fc0f 	bl	565c <_ZN4Pile5emptyEv>
      action.destination->removeCards(action.getCardCount(), &moving);
    4e3e:	210f      	movs	r1, #15
    4e40:	68b0      	ldr	r0, [r6, #8]
    4e42:	4021      	ands	r1, r4
    4e44:	1c3a      	adds	r2, r7, #0
    4e46:	f000 fbf2 	bl	562e <_ZN4Pile11removeCardsEiPS_>
      action.source->addPile(&moving);
    4e4a:	1c28      	adds	r0, r5, #0
    4e4c:	1c39      	adds	r1, r7, #0
    4e4e:	f000 fbcd 	bl	55ec <_ZN4Pile7addPileEPS_>
    }
    updateAfterPlay();
    4e52:	f7ff ff7d 	bl	4d50 <_Z15updateAfterPlayv>
    4e56:	e00b      	b.n	4e70 <_Z11performUndov+0x8c>
void performUndo() {
  // Make sure there is something to undo.
  if (!undo.isEmpty() && mode == selecting) {
    UndoAction action = undo.popAction();
    // Handle draw from stock.
    if (action.wasDraw()) {
    4e58:	1c3c      	adds	r4, r7, #0
      for (byte i = 0; i < cardsToDraw; i++) {
    4e5a:	4b0b      	ldr	r3, [pc, #44]	; (4e88 <_Z11performUndov+0xa4>)
    4e5c:	781b      	ldrb	r3, [r3, #0]
    4e5e:	42a3      	cmp	r3, r4
    4e60:	d9f7      	bls.n	4e52 <_Z11performUndov+0x6e>
        drawAndFlip(&talonDeck, &stockDeck);
    4e62:	4807      	ldr	r0, [pc, #28]	; (4e80 <_Z11performUndov+0x9c>)
    4e64:	4905      	ldr	r1, [pc, #20]	; (4e7c <_Z11performUndov+0x98>)
  // Make sure there is something to undo.
  if (!undo.isEmpty() && mode == selecting) {
    UndoAction action = undo.popAction();
    // Handle draw from stock.
    if (action.wasDraw()) {
      for (byte i = 0; i < cardsToDraw; i++) {
    4e66:	3401      	adds	r4, #1
        drawAndFlip(&talonDeck, &stockDeck);
    4e68:	f7ff faf0 	bl	444c <_Z11drawAndFlipP4PileS0_>
  // Make sure there is something to undo.
  if (!undo.isEmpty() && mode == selecting) {
    UndoAction action = undo.popAction();
    // Handle draw from stock.
    if (action.wasDraw()) {
      for (byte i = 0; i < cardsToDraw; i++) {
    4e6c:	b2e4      	uxtb	r4, r4
    4e6e:	e7f4      	b.n	4e5a <_Z11performUndov+0x76>
      action.destination->removeCards(action.getCardCount(), &moving);
      action.source->addPile(&moving);
    }
    updateAfterPlay();
  }
}
    4e70:	b005      	add	sp, #20
    4e72:	bdf0      	pop	{r4, r5, r6, r7, pc}
    4e74:	20000200 	.word	0x20000200
    4e78:	200002a0 	.word	0x200002a0
    4e7c:	20000280 	.word	0x20000280
    4e80:	20000290 	.word	0x20000290
    4e84:	200001f0 	.word	0x200001f0
    4e88:	20000004 	.word	0x20000004

00004e8c <_Z19handleCommonButtonsv>:
  gb.display.setCursor(0, 0);
  gb.display.setColor(BLACK);
  gb.display.print(gb.getCpuLoad());
}

void handleCommonButtons() {
    4e8c:	b508      	push	{r3, lr}
  if (gb.buttons.pressed(BUTTON_MENU)) {
    4e8e:	4810      	ldr	r0, [pc, #64]	; (4ed0 <_Z19handleCommonButtonsv+0x44>)
    4e90:	2106      	movs	r1, #6
    4e92:	f002 fef3 	bl	7c7c <_ZN14Gamebuino_Meta7Buttons7pressedENS_6ButtonE>
    4e96:	2800      	cmp	r0, #0
    4e98:	d018      	beq.n	4ecc <_Z19handleCommonButtonsv+0x40>
    switch (menu(pauseMenu, (!undo.isEmpty() && mode == selecting) ? 3 : 2, true)) {
    4e9a:	480e      	ldr	r0, [pc, #56]	; (4ed4 <_Z19handleCommonButtonsv+0x48>)
    4e9c:	f000 fd15 	bl	58ca <_ZNK9UndoStack7isEmptyEv>
    4ea0:	2102      	movs	r1, #2
    4ea2:	2800      	cmp	r0, #0
    4ea4:	d105      	bne.n	4eb2 <_Z19handleCommonButtonsv+0x26>
    4ea6:	4b0c      	ldr	r3, [pc, #48]	; (4ed8 <_Z19handleCommonButtonsv+0x4c>)
    4ea8:	7819      	ldrb	r1, [r3, #0]
    4eaa:	3901      	subs	r1, #1
    4eac:	424b      	negs	r3, r1
    4eae:	4159      	adcs	r1, r3
    4eb0:	3102      	adds	r1, #2
    4eb2:	480a      	ldr	r0, [pc, #40]	; (4edc <_Z19handleCommonButtonsv+0x50>)
    4eb4:	2201      	movs	r2, #1
    4eb6:	f000 fe0f 	bl	5ad8 <_Z4menuPKPKcib>
    4eba:	2801      	cmp	r0, #1
    4ebc:	d004      	beq.n	4ec8 <_Z19handleCommonButtonsv+0x3c>
    4ebe:	2802      	cmp	r0, #2
    4ec0:	d104      	bne.n	4ecc <_Z19handleCommonButtonsv+0x40>
      case 1: 
        setupNewGame();
        return;
      case 2:
        performUndo();
    4ec2:	f7ff ff8f 	bl	4de4 <_Z11performUndov>
    4ec6:	e001      	b.n	4ecc <_Z19handleCommonButtonsv+0x40>

void handleCommonButtons() {
  if (gb.buttons.pressed(BUTTON_MENU)) {
    switch (menu(pauseMenu, (!undo.isEmpty() && mode == selecting) ? 3 : 2, true)) {
      case 1: 
        setupNewGame();
    4ec8:	f7ff fd6c 	bl	49a4 <_Z12setupNewGamev>
      case 2:
        performUndo();
        break;
    }
  }
}
    4ecc:	bd08      	pop	{r3, pc}
    4ece:	46c0      	nop			; (mov r8, r8)
    4ed0:	20000a3c 	.word	0x20000a3c
    4ed4:	20000200 	.word	0x20000200
    4ed8:	200002a0 	.word	0x200002a0
    4edc:	000118f8 	.word	0x000118f8

00004ee0 <_Z22handleSelectingButtonsv>:

void handleSelectingButtons() {
    4ee0:	b5f0      	push	{r4, r5, r6, r7, lr}
  // Handle buttons when user is using the arrow cursor to navigate.
  Location originalLocation = activeLocation;
    4ee2:	4ca1      	ldr	r4, [pc, #644]	; (5168 <_Z22handleSelectingButtonsv+0x288>)
  if (gb.buttons.repeat(BUTTON_RIGHT, 8)) {
    4ee4:	4da1      	ldr	r5, [pc, #644]	; (516c <_Z22handleSelectingButtonsv+0x28c>)
  }
}

void handleSelectingButtons() {
  // Handle buttons when user is using the arrow cursor to navigate.
  Location originalLocation = activeLocation;
    4ee6:	7822      	ldrb	r2, [r4, #0]
        break;
    }
  }
}

void handleSelectingButtons() {
    4ee8:	b08b      	sub	sp, #44	; 0x2c
  // Handle buttons when user is using the arrow cursor to navigate.
  Location originalLocation = activeLocation;
    4eea:	9202      	str	r2, [sp, #8]
  if (gb.buttons.repeat(BUTTON_RIGHT, 8)) {
    4eec:	1c28      	adds	r0, r5, #0
    4eee:	2102      	movs	r1, #2
    4ef0:	2208      	movs	r2, #8
    4ef2:	f002 fedd 	bl	7cb0 <_ZN14Gamebuino_Meta7Buttons6repeatENS_6ButtonEt>
    4ef6:	2800      	cmp	r0, #0
    4ef8:	d006      	beq.n	4f08 <_Z22handleSelectingButtonsv+0x28>
    if (activeLocation != foundation4 && activeLocation != tableau7) {
    4efa:	7823      	ldrb	r3, [r4, #0]
    4efc:	2b05      	cmp	r3, #5
    4efe:	d003      	beq.n	4f08 <_Z22handleSelectingButtonsv+0x28>
    4f00:	2b0c      	cmp	r3, #12
    4f02:	d001      	beq.n	4f08 <_Z22handleSelectingButtonsv+0x28>
      activeLocation = (Location)(activeLocation + 1);
    4f04:	3301      	adds	r3, #1
    4f06:	7023      	strb	r3, [r4, #0]
    }
  }
  if (gb.buttons.repeat(BUTTON_LEFT, 8)) {
    4f08:	1c28      	adds	r0, r5, #0
    4f0a:	2101      	movs	r1, #1
    4f0c:	2208      	movs	r2, #8
    4f0e:	f002 fecf 	bl	7cb0 <_ZN14Gamebuino_Meta7Buttons6repeatENS_6ButtonEt>
    4f12:	2800      	cmp	r0, #0
    4f14:	d006      	beq.n	4f24 <_Z22handleSelectingButtonsv+0x44>
    if (activeLocation != stock && activeLocation != tableau1) {
    4f16:	7823      	ldrb	r3, [r4, #0]
    4f18:	2b00      	cmp	r3, #0
    4f1a:	d003      	beq.n	4f24 <_Z22handleSelectingButtonsv+0x44>
    4f1c:	2b06      	cmp	r3, #6
    4f1e:	d001      	beq.n	4f24 <_Z22handleSelectingButtonsv+0x44>
      activeLocation = (Location)(activeLocation - 1);
    4f20:	3b01      	subs	r3, #1
    4f22:	7023      	strb	r3, [r4, #0]
    }
  }
  if (gb.buttons.repeat(BUTTON_DOWN, 8)) {
    4f24:	1c28      	adds	r0, r5, #0
    4f26:	2100      	movs	r1, #0
    4f28:	2208      	movs	r2, #8
    4f2a:	f002 fec1 	bl	7cb0 <_ZN14Gamebuino_Meta7Buttons6repeatENS_6ButtonEt>
    4f2e:	2800      	cmp	r0, #0
    4f30:	d010      	beq.n	4f54 <_Z22handleSelectingButtonsv+0x74>
    if (cardIndex > 0) {
    4f32:	4b8f      	ldr	r3, [pc, #572]	; (5170 <_Z22handleSelectingButtonsv+0x290>)
    4f34:	781a      	ldrb	r2, [r3, #0]
    4f36:	2a00      	cmp	r2, #0
    4f38:	d002      	beq.n	4f40 <_Z22handleSelectingButtonsv+0x60>
      cardIndex--;
    4f3a:	3a01      	subs	r2, #1
    4f3c:	701a      	strb	r2, [r3, #0]
    4f3e:	e009      	b.n	4f54 <_Z22handleSelectingButtonsv+0x74>
    }
    else {
      if (activeLocation < foundation1) activeLocation = (Location)(activeLocation + 6);
    4f40:	7823      	ldrb	r3, [r4, #0]
    4f42:	2b01      	cmp	r3, #1
    4f44:	d802      	bhi.n	4f4c <_Z22handleSelectingButtonsv+0x6c>
    4f46:	3306      	adds	r3, #6
    4f48:	7023      	strb	r3, [r4, #0]
    4f4a:	e003      	b.n	4f54 <_Z22handleSelectingButtonsv+0x74>
      else if (activeLocation <= foundation4) activeLocation = (Location)(activeLocation + 7);
    4f4c:	2b05      	cmp	r3, #5
    4f4e:	d801      	bhi.n	4f54 <_Z22handleSelectingButtonsv+0x74>
    4f50:	3307      	adds	r3, #7
    4f52:	7023      	strb	r3, [r4, #0]
    }
  }
  if (gb.buttons.repeat(BUTTON_UP, 8)) {
    4f54:	1c28      	adds	r0, r5, #0
    4f56:	2103      	movs	r1, #3
    4f58:	2208      	movs	r2, #8
    4f5a:	f002 fea9 	bl	7cb0 <_ZN14Gamebuino_Meta7Buttons6repeatENS_6ButtonEt>
    4f5e:	2800      	cmp	r0, #0
    4f60:	d021      	beq.n	4fa6 <_Z22handleSelectingButtonsv+0xc6>
    bool interPileNavigation = false;
    if (activeLocation >= tableau1 && activeLocation <= tableau7) {
    4f62:	7823      	ldrb	r3, [r4, #0]
    4f64:	3b06      	subs	r3, #6
    4f66:	2b06      	cmp	r3, #6
    4f68:	d817      	bhi.n	4f9a <_Z22handleSelectingButtonsv+0xba>
      Pile *pile = getActiveLocationPile();
    4f6a:	f7ff f993 	bl	4294 <_Z21getActiveLocationPilev>
    4f6e:	1c07      	adds	r7, r0, #0
      if (pile->getCardCount() > cardIndex + 1 && !pile->getCard(cardIndex + 1).isFaceDown()) {
    4f70:	f000 fb2a 	bl	55c8 <_ZNK4Pile12getCardCountEv>
    4f74:	4e7e      	ldr	r6, [pc, #504]	; (5170 <_Z22handleSelectingButtonsv+0x290>)
    4f76:	7831      	ldrb	r1, [r6, #0]
    4f78:	3101      	adds	r1, #1
    4f7a:	4288      	cmp	r0, r1
    4f7c:	dd0d      	ble.n	4f9a <_Z22handleSelectingButtonsv+0xba>
    4f7e:	1c38      	adds	r0, r7, #0
    4f80:	f000 fb24 	bl	55cc <_ZNK4Pile7getCardEi>
    4f84:	ab07      	add	r3, sp, #28
    4f86:	7018      	strb	r0, [r3, #0]
    4f88:	1c18      	adds	r0, r3, #0
    4f8a:	f7ff f8cb 	bl	4124 <_ZNK4Card10isFaceDownEv>
    4f8e:	2800      	cmp	r0, #0
    4f90:	d103      	bne.n	4f9a <_Z22handleSelectingButtonsv+0xba>
        cardIndex++;
    4f92:	7833      	ldrb	r3, [r6, #0]
    4f94:	3301      	adds	r3, #1
    4f96:	7033      	strb	r3, [r6, #0]
    4f98:	e005      	b.n	4fa6 <_Z22handleSelectingButtonsv+0xc6>
        interPileNavigation = true;
      }
    }
    if (!interPileNavigation) {
      if (activeLocation > tableau2) activeLocation = (Location)(activeLocation - 7);
    4f9a:	7823      	ldrb	r3, [r4, #0]
    4f9c:	2b07      	cmp	r3, #7
    4f9e:	d800      	bhi.n	4fa2 <_Z22handleSelectingButtonsv+0xc2>
    4fa0:	e0dc      	b.n	515c <_Z22handleSelectingButtonsv+0x27c>
    4fa2:	3b07      	subs	r3, #7
    4fa4:	7023      	strb	r3, [r4, #0]
      else if (activeLocation >= tableau1) activeLocation = (Location)(activeLocation - 6);
    }
  }
  if (gb.buttons.pressed(BUTTON_B)) {
    4fa6:	1c28      	adds	r0, r5, #0
    4fa8:	2105      	movs	r1, #5
    4faa:	f002 fe67 	bl	7c7c <_ZN14Gamebuino_Meta7Buttons7pressedENS_6ButtonE>
    4fae:	1e06      	subs	r6, r0, #0
    4fb0:	d060      	beq.n	5074 <_Z22handleSelectingButtonsv+0x194>
    if (activeLocation >= tableau1 || activeLocation == talon) {
    4fb2:	7823      	ldrb	r3, [r4, #0]
    4fb4:	2b05      	cmp	r3, #5
    4fb6:	d802      	bhi.n	4fbe <_Z22handleSelectingButtonsv+0xde>
    4fb8:	2b01      	cmp	r3, #1
    4fba:	d000      	beq.n	4fbe <_Z22handleSelectingButtonsv+0xde>
    4fbc:	e0c3      	b.n	5146 <_Z22handleSelectingButtonsv+0x266>
      Pile *pile = getActiveLocationPile();
    4fbe:	f7ff f969 	bl	4294 <_Z21getActiveLocationPilev>
    4fc2:	1c05      	adds	r5, r0, #0
      if (pile->getCardCount() > 0) {
    4fc4:	f000 fb00 	bl	55c8 <_ZNK4Pile12getCardCountEv>
    4fc8:	2800      	cmp	r0, #0
    4fca:	d100      	bne.n	4fce <_Z22handleSelectingButtonsv+0xee>
    4fcc:	e0bb      	b.n	5146 <_Z22handleSelectingButtonsv+0x266>
        Card card = pile->getCard(0);
    4fce:	1c28      	adds	r0, r5, #0
    4fd0:	2100      	movs	r1, #0
    4fd2:	f000 fafb 	bl	55cc <_ZNK4Pile7getCardEi>
    4fd6:	ab05      	add	r3, sp, #20
    4fd8:	7018      	strb	r0, [r3, #0]
    4fda:	2700      	movs	r7, #0
    4fdc:	4b65      	ldr	r3, [pc, #404]	; (5174 <_Z22handleSelectingButtonsv+0x294>)
    4fde:	19db      	adds	r3, r3, r7
        bool foundMatch = false;
        for (int i = 0; i < 4; i++) {
          if (foundations[i].getCardCount() == 0) {
    4fe0:	1c18      	adds	r0, r3, #0
    4fe2:	9301      	str	r3, [sp, #4]
    4fe4:	f000 faf0 	bl	55c8 <_ZNK4Pile12getCardCountEv>
    4fe8:	2800      	cmp	r0, #0
    4fea:	d11f      	bne.n	502c <_Z22handleSelectingButtonsv+0x14c>
            if (card.getValue() == ace) {
    4fec:	a805      	add	r0, sp, #20
    4fee:	f7ff f89c 	bl	412a <_ZNK4Card8getValueEv>
    4ff2:	2801      	cmp	r0, #1
    4ff4:	d13a      	bne.n	506c <_Z22handleSelectingButtonsv+0x18c>
            if (card1.getSuit() == card2.getSuit() && card1.getValue() + 1 == card2.getValue()) {
              foundMatch = true;
            }
          }
          if (foundMatch) {
            moving.empty();
    4ff6:	4e60      	ldr	r6, [pc, #384]	; (5178 <_Z22handleSelectingButtonsv+0x298>)
    4ff8:	1c30      	adds	r0, r6, #0
    4ffa:	f000 fb2f 	bl	565c <_ZN4Pile5emptyEv>
            moving.x = pile->x;
    4ffe:	882b      	ldrh	r3, [r5, #0]
            moving.y = cardYPosition(pile, 0);
    5000:	2100      	movs	r1, #0
    5002:	1c28      	adds	r0, r5, #0
              foundMatch = true;
            }
          }
          if (foundMatch) {
            moving.empty();
            moving.x = pile->x;
    5004:	8033      	strh	r3, [r6, #0]
            moving.y = cardYPosition(pile, 0);
    5006:	f7ff f987 	bl	4318 <_Z13cardYPositionP4Pileh>
    500a:	8070      	strh	r0, [r6, #2]
            moving.addCard(pile->removeTopCard());
    500c:	1c28      	adds	r0, r5, #0
    500e:	f000 fafe 	bl	560e <_ZN4Pile13removeTopCardEv>
    5012:	1c01      	adds	r1, r0, #0
    5014:	1c30      	adds	r0, r6, #0
    5016:	f000 facd 	bl	55b4 <_ZN4Pile7addCardE4Card>
            sourcePile = &foundations[i];
    501a:	9a01      	ldr	r2, [sp, #4]
    501c:	4b57      	ldr	r3, [pc, #348]	; (517c <_Z22handleSelectingButtonsv+0x29c>)
    501e:	601a      	str	r2, [r3, #0]
            mode = fastFoundation;
    5020:	4b57      	ldr	r3, [pc, #348]	; (5180 <_Z22handleSelectingButtonsv+0x2a0>)
    5022:	2205      	movs	r2, #5
    5024:	701a      	strb	r2, [r3, #0]
            playSoundA();
    5026:	f7ff f9f9 	bl	441c <_Z10playSoundAv>
            break;
    502a:	e08c      	b.n	5146 <_Z22handleSelectingButtonsv+0x266>
            if (card.getValue() == ace) {
              foundMatch = true;
            }
          }
          else {
            Card card1 = foundations[i].getCard(0);
    502c:	2100      	movs	r1, #0
    502e:	9801      	ldr	r0, [sp, #4]
    5030:	f000 facc 	bl	55cc <_ZNK4Pile7getCardEi>
    5034:	ae06      	add	r6, sp, #24
            Card card2 = pile->getCard(0);
    5036:	2100      	movs	r1, #0
            if (card.getValue() == ace) {
              foundMatch = true;
            }
          }
          else {
            Card card1 = foundations[i].getCard(0);
    5038:	7030      	strb	r0, [r6, #0]
            Card card2 = pile->getCard(0);
    503a:	1c28      	adds	r0, r5, #0
    503c:	f000 fac6 	bl	55cc <_ZNK4Pile7getCardEi>
    5040:	466b      	mov	r3, sp
    5042:	7718      	strb	r0, [r3, #28]
            if (card1.getSuit() == card2.getSuit() && card1.getValue() + 1 == card2.getValue()) {
    5044:	1c30      	adds	r0, r6, #0
    5046:	f7ff f874 	bl	4132 <_ZNK4Card7getSuitEv>
    504a:	9003      	str	r0, [sp, #12]
    504c:	a807      	add	r0, sp, #28
    504e:	f7ff f870 	bl	4132 <_ZNK4Card7getSuitEv>
    5052:	9a03      	ldr	r2, [sp, #12]
    5054:	4282      	cmp	r2, r0
    5056:	d109      	bne.n	506c <_Z22handleSelectingButtonsv+0x18c>
    5058:	1c30      	adds	r0, r6, #0
    505a:	f7ff f866 	bl	412a <_ZNK4Card8getValueEv>
    505e:	1c06      	adds	r6, r0, #0
    5060:	a807      	add	r0, sp, #28
    5062:	f7ff f862 	bl	412a <_ZNK4Card8getValueEv>
    5066:	3601      	adds	r6, #1
    5068:	4286      	cmp	r6, r0
    506a:	d0c4      	beq.n	4ff6 <_Z22handleSelectingButtonsv+0x116>
    506c:	3710      	adds	r7, #16
    if (activeLocation >= tableau1 || activeLocation == talon) {
      Pile *pile = getActiveLocationPile();
      if (pile->getCardCount() > 0) {
        Card card = pile->getCard(0);
        bool foundMatch = false;
        for (int i = 0; i < 4; i++) {
    506e:	2f40      	cmp	r7, #64	; 0x40
    5070:	d1b4      	bne.n	4fdc <_Z22handleSelectingButtonsv+0xfc>
    5072:	e068      	b.n	5146 <_Z22handleSelectingButtonsv+0x266>
          }
        }
      }
    }
  }
  else if (gb.buttons.pressed(BUTTON_A)) {
    5074:	1c28      	adds	r0, r5, #0
    5076:	2104      	movs	r1, #4
    5078:	f002 fe00 	bl	7c7c <_ZN14Gamebuino_Meta7Buttons7pressedENS_6ButtonE>
    507c:	2800      	cmp	r0, #0
    507e:	d062      	beq.n	5146 <_Z22handleSelectingButtonsv+0x266>
    switch (activeLocation) {
    5080:	7823      	ldrb	r3, [r4, #0]
    5082:	2b00      	cmp	r3, #0
    5084:	d002      	beq.n	508c <_Z22handleSelectingButtonsv+0x1ac>
    5086:	2b0c      	cmp	r3, #12
    5088:	d85d      	bhi.n	5146 <_Z22handleSelectingButtonsv+0x266>
    508a:	e03d      	b.n	5108 <_Z22handleSelectingButtonsv+0x228>
      case stock:
        if (stockDeck.getCardCount() != 0) {
    508c:	4d3d      	ldr	r5, [pc, #244]	; (5184 <_Z22handleSelectingButtonsv+0x2a4>)
    508e:	1c28      	adds	r0, r5, #0
    5090:	f000 fa9a 	bl	55c8 <_ZNK4Pile12getCardCountEv>
    5094:	1c2e      	adds	r6, r5, #0
    5096:	2800      	cmp	r0, #0
    5098:	d021      	beq.n	50de <_Z22handleSelectingButtonsv+0x1fe>
          moving.empty();
    509a:	4e37      	ldr	r6, [pc, #220]	; (5178 <_Z22handleSelectingButtonsv+0x298>)
    509c:	1c30      	adds	r0, r6, #0
    509e:	f000 fadd 	bl	565c <_ZN4Pile5emptyEv>
          drawAndFlip(&stockDeck, &moving);
    50a2:	1c28      	adds	r0, r5, #0
    50a4:	1c31      	adds	r1, r6, #0
    50a6:	f7ff f9d1 	bl	444c <_Z11drawAndFlipP4PileS0_>
          moving.x = stockDeck.x;
    50aa:	882b      	ldrh	r3, [r5, #0]
          moving.y = stockDeck.y;
          remainingDraws = min(cardsToDraw - 1, stockDeck.getCardCount()); 
    50ac:	1c28      	adds	r0, r5, #0
    switch (activeLocation) {
      case stock:
        if (stockDeck.getCardCount() != 0) {
          moving.empty();
          drawAndFlip(&stockDeck, &moving);
          moving.x = stockDeck.x;
    50ae:	8033      	strh	r3, [r6, #0]
          moving.y = stockDeck.y;
    50b0:	886b      	ldrh	r3, [r5, #2]
    50b2:	8073      	strh	r3, [r6, #2]
          remainingDraws = min(cardsToDraw - 1, stockDeck.getCardCount()); 
    50b4:	4e34      	ldr	r6, [pc, #208]	; (5188 <_Z22handleSelectingButtonsv+0x2a8>)
    50b6:	7837      	ldrb	r7, [r6, #0]
    50b8:	f000 fa86 	bl	55c8 <_ZNK4Pile12getCardCountEv>
    50bc:	4287      	cmp	r7, r0
    50be:	dc03      	bgt.n	50c8 <_Z22handleSelectingButtonsv+0x1e8>
    50c0:	7830      	ldrb	r0, [r6, #0]
    50c2:	3801      	subs	r0, #1
    50c4:	b2c0      	uxtb	r0, r0
    50c6:	e002      	b.n	50ce <_Z22handleSelectingButtonsv+0x1ee>
    50c8:	1c28      	adds	r0, r5, #0
    50ca:	f000 fa7d 	bl	55c8 <_ZNK4Pile12getCardCountEv>
    50ce:	4b2f      	ldr	r3, [pc, #188]	; (518c <_Z22handleSelectingButtonsv+0x2ac>)
          mode = drawingCards;
    50d0:	2202      	movs	r2, #2
        if (stockDeck.getCardCount() != 0) {
          moving.empty();
          drawAndFlip(&stockDeck, &moving);
          moving.x = stockDeck.x;
          moving.y = stockDeck.y;
          remainingDraws = min(cardsToDraw - 1, stockDeck.getCardCount()); 
    50d2:	7018      	strb	r0, [r3, #0]
          mode = drawingCards;
    50d4:	4b2a      	ldr	r3, [pc, #168]	; (5180 <_Z22handleSelectingButtonsv+0x2a0>)
    50d6:	701a      	strb	r2, [r3, #0]
          playSoundA();
    50d8:	f7ff f9a0 	bl	441c <_Z10playSoundAv>
    50dc:	e033      	b.n	5146 <_Z22handleSelectingButtonsv+0x266>
        }
        else {
          while (talonDeck.getCardCount() != 0) {
    50de:	4d2c      	ldr	r5, [pc, #176]	; (5190 <_Z22handleSelectingButtonsv+0x2b0>)
    50e0:	1c28      	adds	r0, r5, #0
    50e2:	f000 fa71 	bl	55c8 <_ZNK4Pile12getCardCountEv>
    50e6:	2800      	cmp	r0, #0
    50e8:	d004      	beq.n	50f4 <_Z22handleSelectingButtonsv+0x214>
            drawAndFlip(&talonDeck, &stockDeck);
    50ea:	1c28      	adds	r0, r5, #0
    50ec:	1c31      	adds	r1, r6, #0
    50ee:	f7ff f9ad 	bl	444c <_Z11drawAndFlipP4PileS0_>
    50f2:	e7f4      	b.n	50de <_Z22handleSelectingButtonsv+0x1fe>
          }
          UndoAction action;
          action.setFlippedTalon();
          undo.pushAction(action);
    50f4:	ab07      	add	r3, sp, #28
    50f6:	2220      	movs	r2, #32
    50f8:	701a      	strb	r2, [r3, #0]
    50fa:	4826      	ldr	r0, [pc, #152]	; (5194 <_Z22handleSelectingButtonsv+0x2b4>)
    50fc:	9907      	ldr	r1, [sp, #28]
    50fe:	9a08      	ldr	r2, [sp, #32]
    5100:	9b09      	ldr	r3, [sp, #36]	; 0x24
    5102:	f000 fba6 	bl	5852 <_ZN9UndoStack10pushActionE10UndoAction>
    5106:	e01e      	b.n	5146 <_Z22handleSelectingButtonsv+0x266>
      case tableau3:
      case tableau4:
      case tableau5:
      case tableau6:
      case tableau7:
        sourcePile = getActiveLocationPile();
    5108:	f7ff f8c4 	bl	4294 <_Z21getActiveLocationPilev>
    510c:	4f1b      	ldr	r7, [pc, #108]	; (517c <_Z22handleSelectingButtonsv+0x29c>)
    510e:	6038      	str	r0, [r7, #0]
        if (sourcePile->getCardCount() == 0) break;
    5110:	f000 fa5a 	bl	55c8 <_ZNK4Pile12getCardCountEv>
    5114:	2800      	cmp	r0, #0
    5116:	d016      	beq.n	5146 <_Z22handleSelectingButtonsv+0x266>
        moving.empty();
    5118:	4d17      	ldr	r5, [pc, #92]	; (5178 <_Z22handleSelectingButtonsv+0x298>)
    511a:	1c28      	adds	r0, r5, #0
    511c:	f000 fa9e 	bl	565c <_ZN4Pile5emptyEv>
        moving.x = sourcePile->x;
    5120:	6838      	ldr	r0, [r7, #0]
        moving.y = cardYPosition(sourcePile, 0);
    5122:	1c31      	adds	r1, r6, #0
      case tableau6:
      case tableau7:
        sourcePile = getActiveLocationPile();
        if (sourcePile->getCardCount() == 0) break;
        moving.empty();
        moving.x = sourcePile->x;
    5124:	8803      	ldrh	r3, [r0, #0]
    5126:	802b      	strh	r3, [r5, #0]
        moving.y = cardYPosition(sourcePile, 0);
    5128:	f7ff f8f6 	bl	4318 <_Z13cardYPositionP4Pileh>
        sourcePile->removeCards(cardIndex + 1, &moving);
    512c:	4b10      	ldr	r3, [pc, #64]	; (5170 <_Z22handleSelectingButtonsv+0x290>)
      case tableau7:
        sourcePile = getActiveLocationPile();
        if (sourcePile->getCardCount() == 0) break;
        moving.empty();
        moving.x = sourcePile->x;
        moving.y = cardYPosition(sourcePile, 0);
    512e:	8068      	strh	r0, [r5, #2]
        sourcePile->removeCards(cardIndex + 1, &moving);
    5130:	7819      	ldrb	r1, [r3, #0]
    5132:	1c2a      	adds	r2, r5, #0
    5134:	6838      	ldr	r0, [r7, #0]
    5136:	3101      	adds	r1, #1
    5138:	f000 fa79 	bl	562e <_ZN4Pile11removeCardsEiPS_>
        mode = movingPile;
    513c:	4b10      	ldr	r3, [pc, #64]	; (5180 <_Z22handleSelectingButtonsv+0x2a0>)
    513e:	2203      	movs	r2, #3
    5140:	701a      	strb	r2, [r3, #0]
        playSoundA();
    5142:	f7ff f96b 	bl	441c <_Z10playSoundAv>
        break;
    }
  }
  if (originalLocation != activeLocation) cardIndex = 0;
    5146:	7823      	ldrb	r3, [r4, #0]
    5148:	9a02      	ldr	r2, [sp, #8]
    514a:	4293      	cmp	r3, r2
    514c:	d002      	beq.n	5154 <_Z22handleSelectingButtonsv+0x274>
    514e:	4b08      	ldr	r3, [pc, #32]	; (5170 <_Z22handleSelectingButtonsv+0x290>)
    5150:	2200      	movs	r2, #0
    5152:	701a      	strb	r2, [r3, #0]

  handleCommonButtons();
    5154:	f7ff fe9a 	bl	4e8c <_Z19handleCommonButtonsv>
}
    5158:	b00b      	add	sp, #44	; 0x2c
    515a:	bdf0      	pop	{r4, r5, r6, r7, pc}
        interPileNavigation = true;
      }
    }
    if (!interPileNavigation) {
      if (activeLocation > tableau2) activeLocation = (Location)(activeLocation - 7);
      else if (activeLocation >= tableau1) activeLocation = (Location)(activeLocation - 6);
    515c:	2b05      	cmp	r3, #5
    515e:	d800      	bhi.n	5162 <_Z22handleSelectingButtonsv+0x282>
    5160:	e721      	b.n	4fa6 <_Z22handleSelectingButtonsv+0xc6>
    5162:	3b06      	subs	r3, #6
    5164:	7023      	strb	r3, [r4, #0]
    5166:	e71e      	b.n	4fa6 <_Z22handleSelectingButtonsv+0xc6>
    5168:	2000027c 	.word	0x2000027c
    516c:	20000a3c 	.word	0x20000a3c
    5170:	200002a4 	.word	0x200002a4
    5174:	20000438 	.word	0x20000438
    5178:	200001f0 	.word	0x200001f0
    517c:	20000484 	.word	0x20000484
    5180:	200002a0 	.word	0x200002a0
    5184:	20000280 	.word	0x20000280
    5188:	20000004 	.word	0x20000004
    518c:	200002a3 	.word	0x200002a3
    5190:	20000290 	.word	0x20000290
    5194:	20000200 	.word	0x20000200

00005198 <_Z15drawIllegalMovev>:
  if (pile->isTableau) yDelta += 2 * pile->getCardCount();
  moving.x = updatePosition(moving.x, pile->x);
  moving.y = updatePosition(moving.y, pile->y + yDelta);  
}

void drawIllegalMove() {
    5198:	b5f0      	push	{r4, r5, r6, r7, lr}
  // Move the cards back to the source pile.
  byte yDelta = 0;
  if (sourcePile->isTableau) yDelta += 2 * sourcePile->getCardCount();
    519a:	4d27      	ldr	r5, [pc, #156]	; (5238 <_Z15drawIllegalMovev+0xa0>)
  moving.y = updatePosition(moving.y, pile->y + yDelta);  
}

void drawIllegalMove() {
  // Move the cards back to the source pile.
  byte yDelta = 0;
    519c:	2600      	movs	r6, #0
  if (sourcePile->isTableau) yDelta += 2 * sourcePile->getCardCount();
    519e:	6828      	ldr	r0, [r5, #0]
  if (pile->isTableau) yDelta += 2 * pile->getCardCount();
  moving.x = updatePosition(moving.x, pile->x);
  moving.y = updatePosition(moving.y, pile->y + yDelta);  
}

void drawIllegalMove() {
    51a0:	b085      	sub	sp, #20
  // Move the cards back to the source pile.
  byte yDelta = 0;
  if (sourcePile->isTableau) yDelta += 2 * sourcePile->getCardCount();
    51a2:	7903      	ldrb	r3, [r0, #4]
    51a4:	42b3      	cmp	r3, r6
    51a6:	d003      	beq.n	51b0 <_Z15drawIllegalMovev+0x18>
    51a8:	f000 fa0e 	bl	55c8 <_ZNK4Pile12getCardCountEv>
    51ac:	0046      	lsls	r6, r0, #1
    51ae:	b2f6      	uxtb	r6, r6
  moving.x = updatePosition(moving.x, sourcePile->x);
    51b0:	4c22      	ldr	r4, [pc, #136]	; (523c <_Z15drawIllegalMovev+0xa4>)
    51b2:	682f      	ldr	r7, [r5, #0]
    51b4:	7820      	ldrb	r0, [r4, #0]
    51b6:	7839      	ldrb	r1, [r7, #0]
    51b8:	f7ff f894 	bl	42e4 <_Z14updatePositionhh>
    51bc:	8020      	strh	r0, [r4, #0]
  moving.y = updatePosition(moving.y, sourcePile->y + yDelta); 
    51be:	8879      	ldrh	r1, [r7, #2]
    51c0:	78a0      	ldrb	r0, [r4, #2]
    51c2:	1871      	adds	r1, r6, r1
    51c4:	b2c9      	uxtb	r1, r1
    51c6:	f7ff f88d 	bl	42e4 <_Z14updatePositionhh>
    51ca:	8060      	strh	r0, [r4, #2]
  drawPile(&moving);
    51cc:	1c20      	adds	r0, r4, #0
    51ce:	f7ff fab3 	bl	4738 <_Z8drawPileP4Pile>
  // Check to see if the animation is done
  if (moving.x == sourcePile->x && moving.y == sourcePile->y + yDelta) {
    51d2:	6828      	ldr	r0, [r5, #0]
    51d4:	2100      	movs	r1, #0
    51d6:	5e62      	ldrsh	r2, [r4, r1]
    51d8:	2100      	movs	r1, #0
    51da:	5e43      	ldrsh	r3, [r0, r1]
    51dc:	429a      	cmp	r2, r3
    51de:	d128      	bne.n	5232 <_Z15drawIllegalMovev+0x9a>
    51e0:	2202      	movs	r2, #2
    51e2:	5ea3      	ldrsh	r3, [r4, r2]
    51e4:	2102      	movs	r1, #2
    51e6:	5e42      	ldrsh	r2, [r0, r1]
    51e8:	1996      	adds	r6, r2, r6
    51ea:	42b3      	cmp	r3, r6
    51ec:	d121      	bne.n	5232 <_Z15drawIllegalMovev+0x9a>
    sourcePile->addPile(&moving);
    51ee:	1c21      	adds	r1, r4, #0
    51f0:	f000 f9fc 	bl	55ec <_ZN4Pile7addPileEPS_>
    bool revealed = updateAfterPlay();
    51f4:	f7ff fdac 	bl	4d50 <_Z15updateAfterPlayv>
    
    // Update undo stack if this was a fast move to the foundation.
    if (mode == fastFoundation) {
    51f8:	4c11      	ldr	r4, [pc, #68]	; (5240 <_Z15drawIllegalMovev+0xa8>)
  moving.y = updatePosition(moving.y, sourcePile->y + yDelta); 
  drawPile(&moving);
  // Check to see if the animation is done
  if (moving.x == sourcePile->x && moving.y == sourcePile->y + yDelta) {
    sourcePile->addPile(&moving);
    bool revealed = updateAfterPlay();
    51fa:	1c06      	adds	r6, r0, #0
    
    // Update undo stack if this was a fast move to the foundation.
    if (mode == fastFoundation) {
    51fc:	7823      	ldrb	r3, [r4, #0]
    51fe:	2b05      	cmp	r3, #5
    5200:	d112      	bne.n	5228 <_Z15drawIllegalMovev+0x90>
      UndoAction action;
      action.source = getActiveLocationPile();
    5202:	f7ff f847 	bl	4294 <_Z21getActiveLocationPilev>
      action.destination = sourcePile;
    5206:	682d      	ldr	r5, [r5, #0]
    bool revealed = updateAfterPlay();
    
    // Update undo stack if this was a fast move to the foundation.
    if (mode == fastFoundation) {
      UndoAction action;
      action.source = getActiveLocationPile();
    5208:	ab01      	add	r3, sp, #4
    520a:	6058      	str	r0, [r3, #4]
      action.destination = sourcePile;
    520c:	609d      	str	r5, [r3, #8]
      action.setCardCount(1);
      if (revealed) action.setRevealed();
    520e:	2e00      	cmp	r6, #0
    5210:	d102      	bne.n	5218 <_Z15drawIllegalMovev+0x80>

struct UndoAction {
    byte special = 0;
    Pile *source;
    Pile *destination;
    void setCardCount(byte cardCount) { special = (special & 0xf0) | (cardCount & 0x0f); }
    5212:	2201      	movs	r2, #1
    5214:	701a      	strb	r2, [r3, #0]
    5216:	e001      	b.n	521c <_Z15drawIllegalMovev+0x84>
    byte getCardCount() { return special & 0x0f; }
    void setRevealed() { special |= 0x80; }
    5218:	2281      	movs	r2, #129	; 0x81
    521a:	701a      	strb	r2, [r3, #0]
      undo.pushAction(action);
    521c:	685a      	ldr	r2, [r3, #4]
    521e:	4809      	ldr	r0, [pc, #36]	; (5244 <_Z15drawIllegalMovev+0xac>)
    5220:	9901      	ldr	r1, [sp, #4]
    5222:	689b      	ldr	r3, [r3, #8]
    5224:	f000 fb15 	bl	5852 <_ZN9UndoStack10pushActionE10UndoAction>
    }
    if (mode != wonGame) mode = selecting;
    5228:	7823      	ldrb	r3, [r4, #0]
    522a:	2b06      	cmp	r3, #6
    522c:	d001      	beq.n	5232 <_Z15drawIllegalMovev+0x9a>
    522e:	2301      	movs	r3, #1
    5230:	7023      	strb	r3, [r4, #0]
  }
}
    5232:	b005      	add	sp, #20
    5234:	bdf0      	pop	{r4, r5, r6, r7, pc}
    5236:	46c0      	nop			; (mov r8, r8)
    5238:	20000484 	.word	0x20000484
    523c:	200001f0 	.word	0x200001f0
    5240:	200002a0 	.word	0x200002a0
    5244:	20000200 	.word	0x20000200

00005248 <_Z23handleMovingPileButtonsv>:
  if (originalLocation != activeLocation) cardIndex = 0;

  handleCommonButtons();
}

void handleMovingPileButtons() {
    5248:	b573      	push	{r0, r1, r4, r5, r6, lr}
  // Handle buttons when user is moving a pile of cards.
  if (gb.buttons.repeat(BUTTON_RIGHT, 8)) {
    524a:	4c6b      	ldr	r4, [pc, #428]	; (53f8 <_Z23handleMovingPileButtonsv+0x1b0>)
    524c:	2102      	movs	r1, #2
    524e:	1c20      	adds	r0, r4, #0
    5250:	2208      	movs	r2, #8
    5252:	f002 fd2d 	bl	7cb0 <_ZN14Gamebuino_Meta7Buttons6repeatENS_6ButtonEt>
    5256:	2800      	cmp	r0, #0
    5258:	d007      	beq.n	526a <_Z23handleMovingPileButtonsv+0x22>
    if (activeLocation != foundation4 && activeLocation != tableau7) {
    525a:	4a68      	ldr	r2, [pc, #416]	; (53fc <_Z23handleMovingPileButtonsv+0x1b4>)
    525c:	7813      	ldrb	r3, [r2, #0]
    525e:	2b05      	cmp	r3, #5
    5260:	d003      	beq.n	526a <_Z23handleMovingPileButtonsv+0x22>
    5262:	2b0c      	cmp	r3, #12
    5264:	d001      	beq.n	526a <_Z23handleMovingPileButtonsv+0x22>
      activeLocation = (Location)(activeLocation + 1);
    5266:	3301      	adds	r3, #1
    5268:	7013      	strb	r3, [r2, #0]
    }
  }
  if (gb.buttons.repeat(BUTTON_LEFT, 8)) {
    526a:	1c20      	adds	r0, r4, #0
    526c:	2101      	movs	r1, #1
    526e:	2208      	movs	r2, #8
    5270:	f002 fd1e 	bl	7cb0 <_ZN14Gamebuino_Meta7Buttons6repeatENS_6ButtonEt>
    5274:	2800      	cmp	r0, #0
    5276:	d007      	beq.n	5288 <_Z23handleMovingPileButtonsv+0x40>
    if (activeLocation != talon && activeLocation != tableau1) {
    5278:	4a60      	ldr	r2, [pc, #384]	; (53fc <_Z23handleMovingPileButtonsv+0x1b4>)
    527a:	7813      	ldrb	r3, [r2, #0]
    527c:	2b01      	cmp	r3, #1
    527e:	d003      	beq.n	5288 <_Z23handleMovingPileButtonsv+0x40>
    5280:	2b06      	cmp	r3, #6
    5282:	d001      	beq.n	5288 <_Z23handleMovingPileButtonsv+0x40>
      activeLocation = (Location)(activeLocation - 1);
    5284:	3b01      	subs	r3, #1
    5286:	7013      	strb	r3, [r2, #0]
    }
  }
  if (gb.buttons.repeat(BUTTON_DOWN, 8)) {
    5288:	1c20      	adds	r0, r4, #0
    528a:	2100      	movs	r1, #0
    528c:	2208      	movs	r2, #8
    528e:	f002 fd0f 	bl	7cb0 <_ZN14Gamebuino_Meta7Buttons6repeatENS_6ButtonEt>
    5292:	2800      	cmp	r0, #0
    5294:	d00a      	beq.n	52ac <_Z23handleMovingPileButtonsv+0x64>
    if (activeLocation == talon) activeLocation = tableau2;
    5296:	4b59      	ldr	r3, [pc, #356]	; (53fc <_Z23handleMovingPileButtonsv+0x1b4>)
    5298:	781a      	ldrb	r2, [r3, #0]
    529a:	2a01      	cmp	r2, #1
    529c:	d102      	bne.n	52a4 <_Z23handleMovingPileButtonsv+0x5c>
    529e:	2207      	movs	r2, #7
    52a0:	701a      	strb	r2, [r3, #0]
    52a2:	e003      	b.n	52ac <_Z23handleMovingPileButtonsv+0x64>
    else if (activeLocation <= foundation4) activeLocation = (Location)(activeLocation + 7);
    52a4:	2a05      	cmp	r2, #5
    52a6:	d801      	bhi.n	52ac <_Z23handleMovingPileButtonsv+0x64>
    52a8:	3207      	adds	r2, #7
    52aa:	701a      	strb	r2, [r3, #0]
  }
  if (gb.buttons.repeat(BUTTON_UP, 8)) {
    52ac:	1c20      	adds	r0, r4, #0
    52ae:	2103      	movs	r1, #3
    52b0:	2208      	movs	r2, #8
    52b2:	f002 fcfd 	bl	7cb0 <_ZN14Gamebuino_Meta7Buttons6repeatENS_6ButtonEt>
    52b6:	2800      	cmp	r0, #0
    52b8:	d00a      	beq.n	52d0 <_Z23handleMovingPileButtonsv+0x88>
    if (activeLocation >= tableau4) activeLocation = (Location)(activeLocation - 7);
    52ba:	4b50      	ldr	r3, [pc, #320]	; (53fc <_Z23handleMovingPileButtonsv+0x1b4>)
    52bc:	781a      	ldrb	r2, [r3, #0]
    52be:	2a08      	cmp	r2, #8
    52c0:	d902      	bls.n	52c8 <_Z23handleMovingPileButtonsv+0x80>
    52c2:	3a07      	subs	r2, #7
    52c4:	701a      	strb	r2, [r3, #0]
    52c6:	e003      	b.n	52d0 <_Z23handleMovingPileButtonsv+0x88>
    else if (activeLocation >= tableau1) activeLocation = talon;
    52c8:	2a05      	cmp	r2, #5
    52ca:	d901      	bls.n	52d0 <_Z23handleMovingPileButtonsv+0x88>
    52cc:	2201      	movs	r2, #1
    52ce:	701a      	strb	r2, [r3, #0]
  }
  if (gb.buttons.pressed(BUTTON_A)) {
    52d0:	1c20      	adds	r0, r4, #0
    52d2:	2104      	movs	r1, #4
    52d4:	f002 fcd2 	bl	7c7c <_ZN14Gamebuino_Meta7Buttons7pressedENS_6ButtonE>
    52d8:	2800      	cmp	r0, #0
    52da:	d100      	bne.n	52de <_Z23handleMovingPileButtonsv+0x96>
    52dc:	e084      	b.n	53e8 <_Z23handleMovingPileButtonsv+0x1a0>
    playSoundB();
    52de:	f7ff f8a9 	bl	4434 <_Z10playSoundBv>
    switch (activeLocation) {
    52e2:	4b46      	ldr	r3, [pc, #280]	; (53fc <_Z23handleMovingPileButtonsv+0x1b4>)
    52e4:	7818      	ldrb	r0, [r3, #0]
    52e6:	3801      	subs	r0, #1
    52e8:	280b      	cmp	r0, #11
    52ea:	d87d      	bhi.n	53e8 <_Z23handleMovingPileButtonsv+0x1a0>
    52ec:	f00c f840 	bl	11370 <__gnu_thumb1_case_uqi>
    52f0:	0606067f 	.word	0x0606067f
    52f4:	42424206 	.word	0x42424206
    52f8:	42424242 	.word	0x42424242
      case foundation1:
      case foundation2:
      case foundation3:
      case foundation4:
        {
          if (moving.getCardCount() != 1) {
    52fc:	4d40      	ldr	r5, [pc, #256]	; (5400 <_Z23handleMovingPileButtonsv+0x1b8>)
    52fe:	1c28      	adds	r0, r5, #0
    5300:	f000 f962 	bl	55c8 <_ZNK4Pile12getCardCountEv>
    5304:	2801      	cmp	r0, #1
    5306:	d000      	beq.n	530a <_Z23handleMovingPileButtonsv+0xc2>
    5308:	e071      	b.n	53ee <_Z23handleMovingPileButtonsv+0x1a6>
            mode = illegalMove;
            break;
          }
          Pile *destinationFoundation = getActiveLocationPile();
    530a:	f7fe ffc3 	bl	4294 <_Z21getActiveLocationPilev>
    530e:	1c06      	adds	r6, r0, #0
          if (destinationFoundation->getCardCount() == 0) {
    5310:	f000 f95a 	bl	55c8 <_ZNK4Pile12getCardCountEv>
    5314:	ac01      	add	r4, sp, #4
    5316:	1e01      	subs	r1, r0, #0
    5318:	d109      	bne.n	532e <_Z23handleMovingPileButtonsv+0xe6>
            if (moving.getCard(0).getValue() != ace) {
    531a:	1c28      	adds	r0, r5, #0
    531c:	f000 f956 	bl	55cc <_ZNK4Pile7getCardEi>
    5320:	7020      	strb	r0, [r4, #0]
    5322:	1c20      	adds	r0, r4, #0
    5324:	f7fe ff01 	bl	412a <_ZNK4Card8getValueEv>
    5328:	2801      	cmp	r0, #1
    532a:	d160      	bne.n	53ee <_Z23handleMovingPileButtonsv+0x1a6>
    532c:	e01d      	b.n	536a <_Z23handleMovingPileButtonsv+0x122>
              mode = illegalMove;
              break;
            }
          }
          else {
            Card card1 = destinationFoundation->getCard(0);
    532e:	2100      	movs	r1, #0
    5330:	1c30      	adds	r0, r6, #0
    5332:	f000 f94b 	bl	55cc <_ZNK4Pile7getCardEi>
    5336:	466b      	mov	r3, sp
    5338:	7018      	strb	r0, [r3, #0]
            Card card2 = moving.getCard(0);
    533a:	2100      	movs	r1, #0
    533c:	1c28      	adds	r0, r5, #0
    533e:	f000 f945 	bl	55cc <_ZNK4Pile7getCardEi>
    5342:	7020      	strb	r0, [r4, #0]
            if (card1.getSuit() != card2.getSuit() || card1.getValue() + 1 != card2.getValue()) {
    5344:	4668      	mov	r0, sp
    5346:	f7fe fef4 	bl	4132 <_ZNK4Card7getSuitEv>
    534a:	1c05      	adds	r5, r0, #0
    534c:	1c20      	adds	r0, r4, #0
    534e:	f7fe fef0 	bl	4132 <_ZNK4Card7getSuitEv>
    5352:	4285      	cmp	r5, r0
    5354:	d14b      	bne.n	53ee <_Z23handleMovingPileButtonsv+0x1a6>
    5356:	4668      	mov	r0, sp
    5358:	f7fe fee7 	bl	412a <_ZNK4Card8getValueEv>
    535c:	1c05      	adds	r5, r0, #0
    535e:	1c20      	adds	r0, r4, #0
    5360:	f7fe fee3 	bl	412a <_ZNK4Card8getValueEv>
    5364:	3501      	adds	r5, #1
    5366:	4285      	cmp	r5, r0
    5368:	d141      	bne.n	53ee <_Z23handleMovingPileButtonsv+0x1a6>
              mode = illegalMove;
              break;
            }
          }
          moveCards();
    536a:	f7ff fd09 	bl	4d80 <_Z9moveCardsv>
          checkWonGame();
    536e:	f7ff fcb7 	bl	4ce0 <_Z12checkWonGamev>
        }
        break;
    5372:	e039      	b.n	53e8 <_Z23handleMovingPileButtonsv+0x1a0>
      case tableau4:
      case tableau5:
      case tableau6:
      case tableau7:
        {
          Pile *destinationTableau = getActiveLocationPile();
    5374:	f7fe ff8e 	bl	4294 <_Z21getActiveLocationPilev>
    5378:	1c06      	adds	r6, r0, #0
          if (destinationTableau->getCardCount() > 0) {
    537a:	f000 f925 	bl	55c8 <_ZNK4Pile12getCardCountEv>
    537e:	ac01      	add	r4, sp, #4
    5380:	4d1f      	ldr	r5, [pc, #124]	; (5400 <_Z23handleMovingPileButtonsv+0x1b8>)
    5382:	2800      	cmp	r0, #0
    5384:	d021      	beq.n	53ca <_Z23handleMovingPileButtonsv+0x182>
            // Make sure that it is a decending value, alternating color.
            Card card1 = destinationTableau->getCard(0);
    5386:	2100      	movs	r1, #0
    5388:	1c30      	adds	r0, r6, #0
    538a:	f000 f91f 	bl	55cc <_ZNK4Pile7getCardEi>
    538e:	466b      	mov	r3, sp
    5390:	7018      	strb	r0, [r3, #0]
            Card card2 = moving.getCard(moving.getCardCount() - 1);
    5392:	1c28      	adds	r0, r5, #0
    5394:	f000 f918 	bl	55c8 <_ZNK4Pile12getCardCountEv>
    5398:	1e41      	subs	r1, r0, #1
    539a:	1c28      	adds	r0, r5, #0
    539c:	f000 f916 	bl	55cc <_ZNK4Pile7getCardEi>
    53a0:	7020      	strb	r0, [r4, #0]
            if (card1.isRed() == card2.isRed() || card1.getValue() != card2.getValue() + 1) {
    53a2:	4668      	mov	r0, sp
    53a4:	f7fe fec9 	bl	413a <_ZNK4Card5isRedEv>
    53a8:	1c05      	adds	r5, r0, #0
    53aa:	1c20      	adds	r0, r4, #0
    53ac:	f7fe fec5 	bl	413a <_ZNK4Card5isRedEv>
    53b0:	4285      	cmp	r5, r0
    53b2:	d01c      	beq.n	53ee <_Z23handleMovingPileButtonsv+0x1a6>
    53b4:	4668      	mov	r0, sp
    53b6:	f7fe feb8 	bl	412a <_ZNK4Card8getValueEv>
    53ba:	1c05      	adds	r5, r0, #0
    53bc:	1c20      	adds	r0, r4, #0
    53be:	f7fe feb4 	bl	412a <_ZNK4Card8getValueEv>
    53c2:	3001      	adds	r0, #1
    53c4:	4285      	cmp	r5, r0
    53c6:	d112      	bne.n	53ee <_Z23handleMovingPileButtonsv+0x1a6>
    53c8:	e00c      	b.n	53e4 <_Z23handleMovingPileButtonsv+0x19c>
              break;
            }
          }
          else {
            // You can only place kings in an empty tableau.
            Card card = moving.getCard(moving.getCardCount() - 1);
    53ca:	1c28      	adds	r0, r5, #0
    53cc:	f000 f8fc 	bl	55c8 <_ZNK4Pile12getCardCountEv>
    53d0:	1e41      	subs	r1, r0, #1
    53d2:	1c28      	adds	r0, r5, #0
    53d4:	f000 f8fa 	bl	55cc <_ZNK4Pile7getCardEi>
    53d8:	7020      	strb	r0, [r4, #0]
            if (card.getValue() != king) {
    53da:	1c20      	adds	r0, r4, #0
    53dc:	f7fe fea5 	bl	412a <_ZNK4Card8getValueEv>
    53e0:	280d      	cmp	r0, #13
    53e2:	d104      	bne.n	53ee <_Z23handleMovingPileButtonsv+0x1a6>
              mode = illegalMove;
              break;
            }
          }
        }
        moveCards();
    53e4:	f7ff fccc 	bl	4d80 <_Z9moveCardsv>
        break;
    }
  }

  handleCommonButtons();
    53e8:	f7ff fd50 	bl	4e8c <_Z19handleCommonButtonsv>
}
    53ec:	bd73      	pop	{r0, r1, r4, r5, r6, pc}
          if (destinationTableau->getCardCount() > 0) {
            // Make sure that it is a decending value, alternating color.
            Card card1 = destinationTableau->getCard(0);
            Card card2 = moving.getCard(moving.getCardCount() - 1);
            if (card1.isRed() == card2.isRed() || card1.getValue() != card2.getValue() + 1) {
              mode = illegalMove;
    53ee:	4b05      	ldr	r3, [pc, #20]	; (5404 <_Z23handleMovingPileButtonsv+0x1bc>)
    53f0:	2204      	movs	r2, #4
    53f2:	701a      	strb	r2, [r3, #0]
    53f4:	e7f8      	b.n	53e8 <_Z23handleMovingPileButtonsv+0x1a0>
    53f6:	46c0      	nop			; (mov r8, r8)
    53f8:	20000a3c 	.word	0x20000a3c
    53fc:	2000027c 	.word	0x2000027c
    5400:	200001f0 	.word	0x200001f0
    5404:	200002a0 	.word	0x200002a0

00005408 <_Z10drawCursorhhb>:
      flipped = true;
      break;
  }
}

void drawCursor(byte x, byte y, bool flipped) {
    5408:	b5f0      	push	{r4, r5, r6, r7, lr}
    540a:	4d44      	ldr	r5, [pc, #272]	; (551c <_Z10drawCursorhhb+0x114>)
    540c:	1c06      	adds	r6, r0, #0
    540e:	b085      	sub	sp, #20
    5410:	1c0c      	adds	r4, r1, #0
    5412:	4843      	ldr	r0, [pc, #268]	; (5520 <_Z10drawCursorhhb+0x118>)
  if (flipped) {
    if (cardIndex == 0) {
    5414:	782b      	ldrb	r3, [r5, #0]
      break;
  }
}

void drawCursor(byte x, byte y, bool flipped) {
  if (flipped) {
    5416:	2a00      	cmp	r2, #0
    5418:	d045      	beq.n	54a6 <_Z10drawCursorhhb+0x9e>
    if (cardIndex == 0) {
    541a:	2b00      	cmp	r3, #0
    541c:	d10a      	bne.n	5434 <_Z10drawCursorhhb+0x2c>
      gb.display.drawImage(x, y, cursorImage, -7, 7);
    541e:	2307      	movs	r3, #7
    5420:	425b      	negs	r3, r3
    5422:	9300      	str	r3, [sp, #0]
    5424:	2307      	movs	r3, #7
    5426:	9301      	str	r3, [sp, #4]
    5428:	b231      	sxth	r1, r6
    542a:	b222      	sxth	r2, r4
    542c:	4b3d      	ldr	r3, [pc, #244]	; (5524 <_Z10drawCursorhhb+0x11c>)
    542e:	f005 ff13 	bl	b258 <_ZN14Gamebuino_Meta5Image9drawImageEssRS0_ss>
    5432:	e070      	b.n	5516 <_Z10drawCursorhhb+0x10e>
    }
    else {
      gb.display.drawImage(x - 14, y - 1, cursorDetailsImage, -21, 9);
    5434:	2315      	movs	r3, #21
    5436:	1c31      	adds	r1, r6, #0
    5438:	425b      	negs	r3, r3
    543a:	9300      	str	r3, [sp, #0]
    543c:	1e62      	subs	r2, r4, #1
    543e:	2309      	movs	r3, #9
    5440:	390e      	subs	r1, #14
    5442:	b212      	sxth	r2, r2
    5444:	b209      	sxth	r1, r1
    5446:	9301      	str	r3, [sp, #4]
    5448:	4b37      	ldr	r3, [pc, #220]	; (5528 <_Z10drawCursorhhb+0x120>)
    544a:	f005 ff05 	bl	b258 <_ZN14Gamebuino_Meta5Image9drawImageEssRS0_ss>
      Card card = getActiveLocationPile()->getCard(cardIndex);
    544e:	f7fe ff21 	bl	4294 <_Z21getActiveLocationPilev>
    5452:	7829      	ldrb	r1, [r5, #0]
    5454:	f000 f8ba 	bl	55cc <_ZNK4Pile7getCardEi>
    5458:	ad03      	add	r5, sp, #12
    545a:	7028      	strb	r0, [r5, #0]
      byte extraWidth = card.getValue() == ten ? 2 : 1;
    545c:	1c28      	adds	r0, r5, #0
    545e:	f7fe fe64 	bl	412a <_ZNK4Card8getValueEv>
    5462:	1c03      	adds	r3, r0, #0
    5464:	3b0a      	subs	r3, #10
    5466:	1e5a      	subs	r2, r3, #1
    5468:	4193      	sbcs	r3, r2
      drawValue(x - 12 + extraWidth, y + 1, card.getValue(), card.isRed());
    546a:	1c28      	adds	r0, r5, #0
      gb.display.drawImage(x, y, cursorImage, -7, 7);
    }
    else {
      gb.display.drawImage(x - 14, y - 1, cursorDetailsImage, -21, 9);
      Card card = getActiveLocationPile()->getCard(cardIndex);
      byte extraWidth = card.getValue() == ten ? 2 : 1;
    546c:	1af6      	subs	r6, r6, r3
      drawValue(x - 12 + extraWidth, y + 1, card.getValue(), card.isRed());
    546e:	f7fe fe5c 	bl	412a <_ZNK4Card8getValueEv>
    5472:	1c07      	adds	r7, r0, #0
    5474:	1c28      	adds	r0, r5, #0
    5476:	f7fe fe60 	bl	413a <_ZNK4Card5isRedEv>
    547a:	3602      	adds	r6, #2
    547c:	b2b6      	uxth	r6, r6
    547e:	1c03      	adds	r3, r0, #0
    5480:	3401      	adds	r4, #1
    5482:	1c30      	adds	r0, r6, #0
    5484:	b224      	sxth	r4, r4
    5486:	380c      	subs	r0, #12
    5488:	1c21      	adds	r1, r4, #0
    548a:	1c3a      	adds	r2, r7, #0
    548c:	b200      	sxth	r0, r0
    548e:	f7ff f88d 	bl	45ac <_Z9drawValuess5Valueb>
      drawSuit(x - 8 + extraWidth, y + 1, card.getSuit());
    5492:	1c28      	adds	r0, r5, #0
    5494:	f7fe fe4d 	bl	4132 <_ZNK4Card7getSuitEv>
    5498:	3e08      	subs	r6, #8
    549a:	1c02      	adds	r2, r0, #0
    549c:	1c21      	adds	r1, r4, #0
    549e:	b230      	sxth	r0, r6
    54a0:	f7ff f870 	bl	4584 <_Z8drawSuitss4Suit>
    54a4:	e037      	b.n	5516 <_Z10drawCursorhhb+0x10e>
    54a6:	b231      	sxth	r1, r6
    }
  }
  else {
    if (cardIndex == 0) {
    54a8:	2b00      	cmp	r3, #0
    54aa:	d104      	bne.n	54b6 <_Z10drawCursorhhb+0xae>
      gb.display.drawImage(x, y, cursorImage);
    54ac:	b222      	sxth	r2, r4
    54ae:	4b1d      	ldr	r3, [pc, #116]	; (5524 <_Z10drawCursorhhb+0x11c>)
    54b0:	f005 fe2a 	bl	b108 <_ZN14Gamebuino_Meta5Image9drawImageEssRS0_>
    54b4:	e02f      	b.n	5516 <_Z10drawCursorhhb+0x10e>
    }
    else {
      gb.display.drawImage(x, y - 1, cursorDetailsImage);
    54b6:	1e62      	subs	r2, r4, #1
    54b8:	b212      	sxth	r2, r2
    54ba:	4b1b      	ldr	r3, [pc, #108]	; (5528 <_Z10drawCursorhhb+0x120>)
    54bc:	f005 fe24 	bl	b108 <_ZN14Gamebuino_Meta5Image9drawImageEssRS0_>
      Card card = getActiveLocationPile()->getCard(cardIndex);
    54c0:	f7fe fee8 	bl	4294 <_Z21getActiveLocationPilev>
    54c4:	7829      	ldrb	r1, [r5, #0]
    54c6:	f000 f881 	bl	55cc <_ZNK4Pile7getCardEi>
    54ca:	ad03      	add	r5, sp, #12
    54cc:	7028      	strb	r0, [r5, #0]
      byte extraWidth = card.getValue() == ten ? 2 : 1;
    54ce:	1c28      	adds	r0, r5, #0
    54d0:	f7fe fe2b 	bl	412a <_ZNK4Card8getValueEv>
    54d4:	1c03      	adds	r3, r0, #0
    54d6:	3b0a      	subs	r3, #10
    54d8:	1e5a      	subs	r2, r3, #1
    54da:	4193      	sbcs	r3, r2
      drawValue(x + 8 + extraWidth, y + 1, card.getValue(), card.isRed());
    54dc:	1c28      	adds	r0, r5, #0
      gb.display.drawImage(x, y, cursorImage);
    }
    else {
      gb.display.drawImage(x, y - 1, cursorDetailsImage);
      Card card = getActiveLocationPile()->getCard(cardIndex);
      byte extraWidth = card.getValue() == ten ? 2 : 1;
    54de:	1af6      	subs	r6, r6, r3
      drawValue(x + 8 + extraWidth, y + 1, card.getValue(), card.isRed());
    54e0:	f7fe fe23 	bl	412a <_ZNK4Card8getValueEv>
    54e4:	1c07      	adds	r7, r0, #0
    54e6:	1c28      	adds	r0, r5, #0
    54e8:	f7fe fe27 	bl	413a <_ZNK4Card5isRedEv>
    54ec:	3602      	adds	r6, #2
    54ee:	b2b6      	uxth	r6, r6
    54f0:	1c03      	adds	r3, r0, #0
    54f2:	3401      	adds	r4, #1
    54f4:	1c30      	adds	r0, r6, #0
    54f6:	b224      	sxth	r4, r4
    54f8:	3008      	adds	r0, #8
    54fa:	1c21      	adds	r1, r4, #0
    54fc:	1c3a      	adds	r2, r7, #0
    54fe:	b200      	sxth	r0, r0
    5500:	f7ff f854 	bl	45ac <_Z9drawValuess5Valueb>
      drawSuit(x + 12 + extraWidth, y + 1, card.getSuit());
    5504:	1c28      	adds	r0, r5, #0
    5506:	f7fe fe14 	bl	4132 <_ZNK4Card7getSuitEv>
    550a:	360c      	adds	r6, #12
    550c:	1c02      	adds	r2, r0, #0
    550e:	1c21      	adds	r1, r4, #0
    5510:	b230      	sxth	r0, r6
    5512:	f7ff f837 	bl	4584 <_Z8drawSuitss4Suit>
    }
  }
}
    5516:	b005      	add	sp, #20
    5518:	bdf0      	pop	{r4, r5, r6, r7, pc}
    551a:	46c0      	nop			; (mov r8, r8)
    551c:	200002a4 	.word	0x200002a4
    5520:	20000a4c 	.word	0x20000a4c
    5524:	20000488 	.word	0x20000488
    5528:	200005a0 	.word	0x200005a0

0000552c <_Z10drawCursorv>:
  bounce.yVelocity = -1 * random(0x0200);
  bounceIndex = (bounceIndex + 1) % 4;
  return true;
}

void drawCursor() {
    552c:	b5f7      	push	{r0, r1, r2, r4, r5, r6, r7, lr}
  bool flipped;
  byte x, y;
  getCursorDestination(x, y, flipped);
    552e:	466c      	mov	r4, sp
    5530:	466f      	mov	r7, sp
    5532:	466d      	mov	r5, sp
    5534:	3707      	adds	r7, #7
    5536:	3505      	adds	r5, #5
    5538:	3406      	adds	r4, #6
    553a:	1c2a      	adds	r2, r5, #0
    553c:	1c39      	adds	r1, r7, #0
    553e:	1c20      	adds	r0, r4, #0
    5540:	f7fe ff04 	bl	434c <_Z20getCursorDestinationRhS_Rb>
  
  cursorX = updatePosition(cursorX, x);
    5544:	4e09      	ldr	r6, [pc, #36]	; (556c <_Z10drawCursorv+0x40>)
    5546:	7821      	ldrb	r1, [r4, #0]
    5548:	7830      	ldrb	r0, [r6, #0]
    554a:	f7fe fecb 	bl	42e4 <_Z14updatePositionhh>
    554e:	7030      	strb	r0, [r6, #0]
  cursorY = updatePosition(cursorY, y);
    5550:	4e07      	ldr	r6, [pc, #28]	; (5570 <_Z10drawCursorv+0x44>)
    5552:	7839      	ldrb	r1, [r7, #0]
void drawCursor() {
  bool flipped;
  byte x, y;
  getCursorDestination(x, y, flipped);
  
  cursorX = updatePosition(cursorX, x);
    5554:	1c04      	adds	r4, r0, #0
  cursorY = updatePosition(cursorY, y);
    5556:	7830      	ldrb	r0, [r6, #0]
    5558:	f7fe fec4 	bl	42e4 <_Z14updatePositionhh>

  drawCursor(cursorX, cursorY, flipped);
    555c:	782a      	ldrb	r2, [r5, #0]
  bool flipped;
  byte x, y;
  getCursorDestination(x, y, flipped);
  
  cursorX = updatePosition(cursorX, x);
  cursorY = updatePosition(cursorY, y);
    555e:	7030      	strb	r0, [r6, #0]
    5560:	1c01      	adds	r1, r0, #0

  drawCursor(cursorX, cursorY, flipped);
    5562:	1c20      	adds	r0, r4, #0
    5564:	f7ff ff50 	bl	5408 <_Z10drawCursorhhb>
}
    5568:	bdf7      	pop	{r0, r1, r2, r4, r5, r6, r7, pc}
    556a:	46c0      	nop			; (mov r8, r8)
    556c:	200002a1 	.word	0x200002a1
    5570:	200002a2 	.word	0x200002a2

00005574 <_ZN4PileC1Eh>:
#include "pile.h"
 
Pile::Pile(byte maxCards) {
    5574:	b5f8      	push	{r3, r4, r5, r6, r7, lr}
    5576:	1c04      	adds	r4, r0, #0
  _count = 0;
    5578:	2300      	movs	r3, #0
    557a:	7343      	strb	r3, [r0, #13]
  _maxCards = maxCards;
    557c:	7321      	strb	r1, [r4, #12]
  _cards = new Card[_maxCards];
    557e:	1c08      	adds	r0, r1, #0
#include "pile.h"
 
Pile::Pile(byte maxCards) {
    5580:	1c0f      	adds	r7, r1, #0
  _count = 0;
  _maxCards = maxCards;
  _cards = new Card[_maxCards];
    5582:	f00a fe59 	bl	10238 <_Znaj>
    5586:	1c06      	adds	r6, r0, #0
    5588:	1c05      	adds	r5, r0, #0
    558a:	1c28      	adds	r0, r5, #0
    558c:	19f3      	adds	r3, r6, r7
    558e:	3501      	adds	r5, #1
    5590:	1b5b      	subs	r3, r3, r5
    5592:	3301      	adds	r3, #1
    5594:	d002      	beq.n	559c <_ZN4PileC1Eh+0x28>
    5596:	f7fe fe0d 	bl	41b4 <_ZN4CardC1Ev>
    559a:	e7f6      	b.n	558a <_ZN4PileC1Eh+0x16>
    559c:	60a6      	str	r6, [r4, #8]
}
    559e:	1c20      	adds	r0, r4, #0
    55a0:	bdf8      	pop	{r3, r4, r5, r6, r7, pc}

000055a2 <_ZN4PileD1Ev>:

Pile::~Pile() {
    55a2:	b510      	push	{r4, lr}
    55a4:	1c04      	adds	r4, r0, #0
  delete[] _cards;
    55a6:	6880      	ldr	r0, [r0, #8]
    55a8:	2800      	cmp	r0, #0
    55aa:	d001      	beq.n	55b0 <_ZN4PileD1Ev+0xe>
    55ac:	f00a fe4c 	bl	10248 <_ZdaPv>
}
    55b0:	1c20      	adds	r0, r4, #0
    55b2:	bd10      	pop	{r4, pc}

000055b4 <_ZN4Pile7addCardE4Card>:

void Pile::addCard(Card card) {
  if (_count < _maxCards) _cards[_count++] = card;
    55b4:	7b43      	ldrb	r3, [r0, #13]
    55b6:	7b02      	ldrb	r2, [r0, #12]

Pile::~Pile() {
  delete[] _cards;
}

void Pile::addCard(Card card) {
    55b8:	b510      	push	{r4, lr}
  if (_count < _maxCards) _cards[_count++] = card;
    55ba:	429a      	cmp	r2, r3
    55bc:	d903      	bls.n	55c6 <_ZN4Pile7addCardE4Card+0x12>
    55be:	6882      	ldr	r2, [r0, #8]
    55c0:	1c5c      	adds	r4, r3, #1
    55c2:	7344      	strb	r4, [r0, #13]
    55c4:	54d1      	strb	r1, [r2, r3]
}
    55c6:	bd10      	pop	{r4, pc}

000055c8 <_ZNK4Pile12getCardCountEv>:
    addCard(pile->getCard(i));  
  }
}

byte Pile::getCardCount() const {
  return _count;
    55c8:	7b40      	ldrb	r0, [r0, #13]
}
    55ca:	4770      	bx	lr

000055cc <_ZNK4Pile7getCardEi>:

Card Pile::getCard(int indexFromTop) const {
    55cc:	b513      	push	{r0, r1, r4, lr}
  if (indexFromTop < _count) {
    55ce:	7b43      	ldrb	r3, [r0, #13]
    55d0:	4299      	cmp	r1, r3
    55d2:	da05      	bge.n	55e0 <_ZNK4Pile7getCardEi+0x14>
    return _cards[_count - indexFromTop - 1];
    55d4:	1a59      	subs	r1, r3, r1
    55d6:	6883      	ldr	r3, [r0, #8]
    55d8:	185b      	adds	r3, r3, r1
    55da:	3b01      	subs	r3, #1
    55dc:	7818      	ldrb	r0, [r3, #0]
    55de:	e004      	b.n	55ea <_ZNK4Pile7getCardEi+0x1e>
  }
  return Card();
    55e0:	ac01      	add	r4, sp, #4
    55e2:	1c20      	adds	r0, r4, #0
    55e4:	f7fe fde6 	bl	41b4 <_ZN4CardC1Ev>
    55e8:	7820      	ldrb	r0, [r4, #0]
}
    55ea:	bd16      	pop	{r1, r2, r4, pc}

000055ec <_ZN4Pile7addPileEPS_>:

void Pile::addCard(Card card) {
  if (_count < _maxCards) _cards[_count++] = card;
}

void Pile::addPile(Pile *pile) {
    55ec:	b570      	push	{r4, r5, r6, lr}
  for (int i = pile->getCardCount() - 1; i >= 0; i--) {
    55ee:	7b4c      	ldrb	r4, [r1, #13]

void Pile::addCard(Card card) {
  if (_count < _maxCards) _cards[_count++] = card;
}

void Pile::addPile(Pile *pile) {
    55f0:	1c06      	adds	r6, r0, #0
    55f2:	1c0d      	adds	r5, r1, #0
  for (int i = pile->getCardCount() - 1; i >= 0; i--) {
    55f4:	3c01      	subs	r4, #1
    55f6:	1c63      	adds	r3, r4, #1
    55f8:	d008      	beq.n	560c <_ZN4Pile7addPileEPS_+0x20>
    addCard(pile->getCard(i));  
    55fa:	1c21      	adds	r1, r4, #0
    55fc:	1c28      	adds	r0, r5, #0
    55fe:	f7ff ffe5 	bl	55cc <_ZNK4Pile7getCardEi>
    5602:	1c01      	adds	r1, r0, #0
    5604:	1c30      	adds	r0, r6, #0
    5606:	f7ff ffd5 	bl	55b4 <_ZN4Pile7addCardE4Card>
    560a:	e7f3      	b.n	55f4 <_ZN4Pile7addPileEPS_+0x8>
  }
}
    560c:	bd70      	pop	{r4, r5, r6, pc}

0000560e <_ZN4Pile13removeTopCardEv>:
    return _cards[_count - indexFromTop - 1];
  }
  return Card();
}

Card Pile::removeTopCard() {
    560e:	b513      	push	{r0, r1, r4, lr}
  if (_count > 0) return _cards[--_count];
    5610:	7b43      	ldrb	r3, [r0, #13]
    5612:	2b00      	cmp	r3, #0
    5614:	d005      	beq.n	5622 <_ZN4Pile13removeTopCardEv+0x14>
    5616:	3b01      	subs	r3, #1
    5618:	b2db      	uxtb	r3, r3
    561a:	6882      	ldr	r2, [r0, #8]
    561c:	7343      	strb	r3, [r0, #13]
    561e:	5cd0      	ldrb	r0, [r2, r3]
    5620:	e004      	b.n	562c <_ZN4Pile13removeTopCardEv+0x1e>
  return Card();
    5622:	ac01      	add	r4, sp, #4
    5624:	1c20      	adds	r0, r4, #0
    5626:	f7fe fdc5 	bl	41b4 <_ZN4CardC1Ev>
    562a:	7820      	ldrb	r0, [r4, #0]
}
    562c:	bd16      	pop	{r1, r2, r4, pc}

0000562e <_ZN4Pile11removeCardsEiPS_>:

void Pile::removeCards(int count, Pile* destination) {
    562e:	b5f8      	push	{r3, r4, r5, r6, r7, lr}
  count = min(count, _count);
    5630:	7b43      	ldrb	r3, [r0, #13]
Card Pile::removeTopCard() {
  if (_count > 0) return _cards[--_count];
  return Card();
}

void Pile::removeCards(int count, Pile* destination) {
    5632:	1c06      	adds	r6, r0, #0
    5634:	1c17      	adds	r7, r2, #0
  count = min(count, _count);
    5636:	1e0c      	subs	r4, r1, #0
    5638:	429c      	cmp	r4, r3
    563a:	dd00      	ble.n	563e <_ZN4Pile11removeCardsEiPS_+0x10>
    563c:	1c1c      	adds	r4, r3, #0
  _count -= count;
    563e:	1b1b      	subs	r3, r3, r4
    5640:	7373      	strb	r3, [r6, #13]
  for (int i = 0; i < count; i++) destination->addCard(_cards[_count + i]);
    5642:	2500      	movs	r5, #0
    5644:	42a5      	cmp	r5, r4
    5646:	da08      	bge.n	565a <_ZN4Pile11removeCardsEiPS_+0x2c>
    5648:	68b1      	ldr	r1, [r6, #8]
    564a:	7b73      	ldrb	r3, [r6, #13]
    564c:	194a      	adds	r2, r1, r5
    564e:	5cd1      	ldrb	r1, [r2, r3]
    5650:	1c38      	adds	r0, r7, #0
    5652:	f7ff ffaf 	bl	55b4 <_ZN4Pile7addCardE4Card>
    5656:	3501      	adds	r5, #1
    5658:	e7f4      	b.n	5644 <_ZN4Pile11removeCardsEiPS_+0x16>
}
    565a:	bdf8      	pop	{r3, r4, r5, r6, r7, pc}

0000565c <_ZN4Pile5emptyEv>:

void Pile::empty() {
  _count = 0;
    565c:	2300      	movs	r3, #0
    565e:	7343      	strb	r3, [r0, #13]
}
    5660:	4770      	bx	lr

00005662 <_ZN4Pile7shuffleEv>:

void Pile::shuffle() {
    5662:	b538      	push	{r3, r4, r5, lr}
    5664:	1c05      	adds	r5, r0, #0
  for (int i = 0; i < _count; i++) {
    5666:	2400      	movs	r4, #0
    5668:	7b68      	ldrb	r0, [r5, #13]
    566a:	4284      	cmp	r4, r0
    566c:	da13      	bge.n	5696 <_ZN4Pile7shuffleEv+0x34>
    int randomIndex = random(_count - i);
    566e:	1b00      	subs	r0, r0, r4
    5670:	f00a fda6 	bl	101c0 <_Z6randoml>
    Card tmp = _cards[randomIndex];
    _cards[randomIndex] = _cards[_count - i - 1];
    5674:	7b69      	ldrb	r1, [r5, #13]
}

void Pile::shuffle() {
  for (int i = 0; i < _count; i++) {
    int randomIndex = random(_count - i);
    Card tmp = _cards[randomIndex];
    5676:	68ab      	ldr	r3, [r5, #8]
    _cards[randomIndex] = _cards[_count - i - 1];
    5678:	1b09      	subs	r1, r1, r4
}

void Pile::shuffle() {
  for (int i = 0; i < _count; i++) {
    int randomIndex = random(_count - i);
    Card tmp = _cards[randomIndex];
    567a:	1818      	adds	r0, r3, r0
    _cards[randomIndex] = _cards[_count - i - 1];
    567c:	185b      	adds	r3, r3, r1
    567e:	3b01      	subs	r3, #1
    5680:	781b      	ldrb	r3, [r3, #0]
}

void Pile::shuffle() {
  for (int i = 0; i < _count; i++) {
    int randomIndex = random(_count - i);
    Card tmp = _cards[randomIndex];
    5682:	7802      	ldrb	r2, [r0, #0]
    _cards[randomIndex] = _cards[_count - i - 1];
    5684:	7003      	strb	r3, [r0, #0]
    _cards[_count - i - 1] = tmp;
    5686:	7b6b      	ldrb	r3, [r5, #13]
    5688:	68a9      	ldr	r1, [r5, #8]
    568a:	1b1b      	subs	r3, r3, r4
    568c:	18cb      	adds	r3, r1, r3
    568e:	3b01      	subs	r3, #1
    5690:	701a      	strb	r2, [r3, #0]
void Pile::empty() {
  _count = 0;
}

void Pile::shuffle() {
  for (int i = 0; i < _count; i++) {
    5692:	3401      	adds	r4, #1
    5694:	e7e8      	b.n	5668 <_ZN4Pile7shuffleEv+0x6>
    int randomIndex = random(_count - i);
    Card tmp = _cards[randomIndex];
    _cards[randomIndex] = _cards[_count - i - 1];
    _cards[_count - i - 1] = tmp;
  }
}
    5696:	bd38      	pop	{r3, r4, r5, pc}

00005698 <_ZN4Pile7newDeckEv>:

void Pile::newDeck() {
    5698:	b5f7      	push	{r0, r1, r2, r4, r5, r6, r7, lr}
  _count -= count;
  for (int i = 0; i < count; i++) destination->addCard(_cards[_count + i]);
}

void Pile::empty() {
  _count = 0;
    569a:	2500      	movs	r5, #0
    _cards[randomIndex] = _cards[_count - i - 1];
    _cards[_count - i - 1] = tmp;
  }
}

void Pile::newDeck() {
    569c:	1c06      	adds	r6, r0, #0
  _count -= count;
  for (int i = 0; i < count; i++) destination->addCard(_cards[_count + i]);
}

void Pile::empty() {
  _count = 0;
    569e:	7345      	strb	r5, [r0, #13]
    _cards[randomIndex] = _cards[_count - i - 1];
    _cards[_count - i - 1] = tmp;
  }
}

void Pile::newDeck() {
    56a0:	2401      	movs	r4, #1
  empty();
  for (int suit = spade; suit <= diamond; suit++) {
    for (int value = ace; value <= king; value++) {
      addCard(Card(static_cast<Value>(value), static_cast<Suit>(suit), true));
    56a2:	af01      	add	r7, sp, #4
    56a4:	b2e1      	uxtb	r1, r4
    56a6:	b2ea      	uxtb	r2, r5
    56a8:	2301      	movs	r3, #1
    56aa:	1c38      	adds	r0, r7, #0
    56ac:	f7fe fd32 	bl	4114 <_ZN4CardC1E5Value4Suitb>
}

void Pile::newDeck() {
  empty();
  for (int suit = spade; suit <= diamond; suit++) {
    for (int value = ace; value <= king; value++) {
    56b0:	3401      	adds	r4, #1
      addCard(Card(static_cast<Value>(value), static_cast<Suit>(suit), true));
    56b2:	7839      	ldrb	r1, [r7, #0]
    56b4:	1c30      	adds	r0, r6, #0
    56b6:	f7ff ff7d 	bl	55b4 <_ZN4Pile7addCardE4Card>
}

void Pile::newDeck() {
  empty();
  for (int suit = spade; suit <= diamond; suit++) {
    for (int value = ace; value <= king; value++) {
    56ba:	2c0e      	cmp	r4, #14
    56bc:	d1f1      	bne.n	56a2 <_ZN4Pile7newDeckEv+0xa>
  }
}

void Pile::newDeck() {
  empty();
  for (int suit = spade; suit <= diamond; suit++) {
    56be:	3501      	adds	r5, #1
    56c0:	2d04      	cmp	r5, #4
    56c2:	d1ed      	bne.n	56a0 <_ZN4Pile7newDeckEv+0x8>
    for (int value = ace; value <= king; value++) {
      addCard(Card(static_cast<Value>(value), static_cast<Suit>(suit), true));
    }
  }
}
    56c4:	bdf7      	pop	{r0, r1, r2, r4, r5, r6, r7, pc}
	...

000056c8 <_Z11initSpritesv>:
Image cursorDetailsImage(cursorDetailsData, ColorMode::rgb565);

const uint16_t talonBackgroundData[] = {5,14,0x1f,0xffff,0xacd0,0xffff,0xacd0,0xffff,0xacd0,0xffff,0xacd0,0xffff,0xffff,0xacd0,0xffff,0xacd0,0xffff,0xffff,0xacd0,0xffff,0xacd0,0xffff,0xffff,0xacd0,0xffff,0xacd0,0xffff,0xffff,0xacd0,0xffff,0xacd0,0xffff,0xffff,0xacd0,0xffff,0xacd0,0xffff,0xffff,0xacd0,0xffff,0xacd0,0xffff,0xffff,0xacd0,0xffff,0xacd0,0xffff,0xffff,0xacd0,0xffff,0xacd0,0xffff,0xffff,0xacd0,0xffff,0xacd0,0xffff,0xffff,0xacd0,0xffff,0xacd0,0xffff,0xffff,0xacd0,0xffff,0xacd0,0xffff,0x1f,0xffff,0xacd0,0xffff,0xacd0};
Image talonBackgroundImage(talonBackgroundData, ColorMode::rgb565);

void initSprites() {
    56c8:	b508      	push	{r3, lr}
  cardSprite.setTransparentColor((Color)0x1f);
    56ca:	480e      	ldr	r0, [pc, #56]	; (5704 <_Z11initSpritesv+0x3c>)
    56cc:	211f      	movs	r1, #31
    56ce:	f004 fbd3 	bl	9e78 <_ZN14Gamebuino_Meta8Graphics19setTransparentColorENS_5ColorE>
  cardTopSprite.setTransparentColor((Color)0x1f);
    56d2:	480d      	ldr	r0, [pc, #52]	; (5708 <_Z11initSpritesv+0x40>)
    56d4:	211f      	movs	r1, #31
    56d6:	f004 fbcf 	bl	9e78 <_ZN14Gamebuino_Meta8Graphics19setTransparentColorENS_5ColorE>
  valueSprite.setTransparentColor((Color)0x1f);
    56da:	480c      	ldr	r0, [pc, #48]	; (570c <_Z11initSpritesv+0x44>)
    56dc:	211f      	movs	r1, #31
    56de:	f004 fbcb 	bl	9e78 <_ZN14Gamebuino_Meta8Graphics19setTransparentColorENS_5ColorE>
  suitSprite.setTransparentColor((Color)0x1f);
    56e2:	480b      	ldr	r0, [pc, #44]	; (5710 <_Z11initSpritesv+0x48>)
    56e4:	211f      	movs	r1, #31
    56e6:	f004 fbc7 	bl	9e78 <_ZN14Gamebuino_Meta8Graphics19setTransparentColorENS_5ColorE>
  cursorImage.setTransparentColor((Color)0x1f);
    56ea:	480a      	ldr	r0, [pc, #40]	; (5714 <_Z11initSpritesv+0x4c>)
    56ec:	211f      	movs	r1, #31
    56ee:	f004 fbc3 	bl	9e78 <_ZN14Gamebuino_Meta8Graphics19setTransparentColorENS_5ColorE>
  cursorDetailsImage.setTransparentColor((Color)0x1f);
    56f2:	4809      	ldr	r0, [pc, #36]	; (5718 <_Z11initSpritesv+0x50>)
    56f4:	211f      	movs	r1, #31
    56f6:	f004 fbbf 	bl	9e78 <_ZN14Gamebuino_Meta8Graphics19setTransparentColorENS_5ColorE>
  talonBackgroundImage.setTransparentColor((Color)0x1f);
    56fa:	4808      	ldr	r0, [pc, #32]	; (571c <_Z11initSpritesv+0x54>)
    56fc:	211f      	movs	r1, #31
    56fe:	f004 fbbb 	bl	9e78 <_ZN14Gamebuino_Meta8Graphics19setTransparentColorENS_5ColorE>
}
    5702:	bd08      	pop	{r3, pc}
    5704:	20000528 	.word	0x20000528
    5708:	20000550 	.word	0x20000550
    570c:	200004d8 	.word	0x200004d8
    5710:	200004b0 	.word	0x200004b0
    5714:	20000488 	.word	0x20000488
    5718:	200005a0 	.word	0x200005a0
    571c:	20000500 	.word	0x20000500

00005720 <_GLOBAL__sub_I_backgroundImage>:
    5720:	b5f7      	push	{r0, r1, r2, r4, r5, r6, r7, lr}
#include "sprites.h"

const uint16_t backgroundData[] = {80,64,0x44a,0x409,0x409,0x409,0x409,0x409,0x409,0x409,0x44a,0x44a,0x44a,0x44a,0x44a,0x409,0x409,0x409,0x409,0x409,0x409,0x409,0x44a,0x44a,0x44a,0x44a,0x44a,0x409,0x409,0x409,0x409,0x409,0x409,0x409,0x44a,0x44a,0x44a,0x44a,0x44a,0x409,0x409,0x409,0x409,0x409,0x409,0x409,0x44a,0x44a,0x44a,0x44a,0x44a,0x409,0x409,0x409,0x409,0x409,0x409,0x409,0x44a,0x44a,0x44a,0x44a,0x44a,0x409,0x409,0x409,0x409,0x409,0x409,0x409,0x44a,0x44a,0x44a,0x44a,0x44a,0x409,0x409,0x409,0x409,0x409,0x409,0x409,0x409,0x409,0x409,0x44a,0x409,0x44a,0x409,0x409,0x409,0x44a,0x44a,0x44a,0x409,0x409,0x409,0x409,0x44a,0x409,0x409,0x409,0x409,0x44a,0x44a,0x44a,0x409,0x409,0x409,0x44a,0x409,0x44a,0x409,0x409,0x409,0x44a,0x44a,0x44a,0x409,0x409,0x409,0x409,0x44a,0x409,0x409,0x409,0x409,0x44a,0x44a,0x44a,0x409,0x409,0x409,0x44a,0x409,0x44a,0x409,0x409,0x409,0x44a,0x44a,0x44a,0x409,0x409,0x409,0x409,0x44a,0x409,0x409,0x409,0x409,0x44a,0x44a,0x44a,0x409,0x409,0x409,0x44a,0x409,0x44a,0x409,0x409,0x409,0x409,0x44a,0x52b,0x52b,0x52b,0x52b,0x4eb,0x4eb,0x4eb,0x44a,0x409,0x409,0x409,0x4eb,0x52b,0x52b,0x52b,0x4eb,0x4eb,0x4eb,0x409,0x44a,0x409,0x409,0x409,0x44a,0x44a,0x44a,0x44a,0x44a,0x409,0x409,0x409,0x44a,0x409,0x4eb,0x4eb,0x4eb,0x52b,0x52b,0x52b,0x4eb,0x409,0x409,0x409,0x44a,0x4eb,0x4eb,0x4eb,0x52b,0x52b,0x52b,0x52b,0x44a,0x409,0x409,0x409,0x52b,0x4eb,0x4eb,0x4eb,0x4eb,0x52b,0x52b,0x44a,0x409,0x409,0x409,0x4eb,0x52b,0x4eb,0x4eb,0x4eb,0x52b,0x52b,0x44a,0x44a,0x44a,0x409,0x409,0x409,0x52b,0x52b,0x52b,0x52b,0x52b,0x4eb,0x4eb,0x4eb,0x4eb,0x409,0x409,0x4eb,0x52b,0x52b,0x52b,0x52b,0x52b,0x4eb,0x4eb,0x4eb,0x409,0x409,0x409,0x409,0x44a,0x44a,0x44a,0x44a,0x44a,0x409,0x409,0x409,0x409,0x4eb,0x4eb,0x4eb,0x52b,0x52b,0x52b,0x52b,0x52b,0x4eb,0x409,0x409,0x4eb,0x4eb,0x4eb,0x4eb,0x52b,0x52b,0x52b,0x52b,0x52b,0x409,0x409,0x4eb,0x4eb,0x4eb,0x4eb,0x4eb,0x52b,0x52b,0x52b,0x52b,0x44a,0x409,0x4eb,0x4eb,0x4eb,0x4eb,0x4eb,0x4eb,0x52b,0x52b,0x52b,0x44a,0x44a,0x409,0x409,0x409,0x4eb,0x52b,0x52b,0x52b,0x4eb,0x4eb,0x4eb,0x4eb,0x52b,0x409,0x409,0x4eb,0x4eb,0x52b,0x52b,0x52b,0x4eb,0x4eb,0x4eb,0x4eb,0x44a,0x409,0x409,0x409,0x409,0x44a,0x44a,0x44a,0x409,0x409,0x409,0x409,0x44a,0x4eb,0x4eb,0x4eb,0x4eb,0x52b,0x52b,0x52b,0x4eb,0x4eb,0x409,0x409,0x52b,0x4eb,0x4eb,0x4eb,0x4eb,0x52b,0x52b,0x52b,0x4eb,0x409,0x409,0x4eb,0x52b,0x4eb,0x4eb,0x4eb,0x4eb,0x52b,0x52b,0x52b,0x409,0x409,0x4eb,0x4eb,0x52b,0x4eb,0x4eb,0x4eb,0x4eb,0x52b,0x52b,0x44a,0x409,0x409,0x409,0x409,0x4eb,0x4eb,0x52b,0x4eb,0x4eb,0x4eb,0x4eb,0x52b,0x52b,0x44a,0x409,0x4eb,0x4eb,0x4eb,0x52b,0x4eb,0x4eb,0x4eb,0x4eb,0x52b,0x44a,0x44a,0x409,0x409,0x409,0x409,0x44a,0x409,0x409,0x409,0x409,0x44a,0x44a,0x52b,0x4eb,0x4eb,0x4eb,0x4eb,0x52b,0x4eb,0x4eb,0x4eb,0x409,0x44a,0x52b,0x52b,0x4eb,0x4eb,0x4eb,0x4eb,0x52b,0x4eb,0x4eb,0x409,0x409,0x52b,0x52b,0x52b,0x4eb,0x4eb,0x4eb,0x4eb,0x52b,0x4eb,0x409,0x409,0x4eb,0x52b,0x52b,0x52b,0x4eb,0x4eb,0x4eb,0x4eb,0x52b,0x409,0x409,0x409,0x44a,0x409,0x4eb,0x4eb,0x4eb,0x4eb,0x4eb,0x4eb,0x52b,0x52b,0x52b,0x44a,0x44a,0x4eb,0x4eb,0x4eb,0x4eb,0x4eb,0x4eb,0x4eb,0x52b,0x52b,0x44a,0x44a,0x44a,0x409,0x409,0x409,0x409,0x409,0x409,0x409,0x44a,0x44a,0x44a,0x52b,0x52b,0x4eb,0x4eb,0x4eb,0x4eb,0x4eb,0x4eb,0x4eb,0x44a,0x44a,0x52b,0x52b,0x52b,0x4eb,0x4eb,0x4eb,0x4eb,0x4eb,0x4eb,0x409,0x44a,0x52b,0x52b,0x52b,0x52b,0x4eb,0x4eb,0x4eb,0x4eb,0x4eb,0x409,0x409,0x52b,0x52b,0x52b,0x52b,0x52b,0x4eb,0x4eb,0x4eb,0x4eb,0x409,0x409,0x409,0x44a,0x44a,0x4eb,0x4eb,0x4eb,0x4eb,0x4eb,0x52b,0x52b,0x4eb,0x4eb,0x409,0x44a,0x52b,0x4eb,0x4eb,0x4eb,0x4eb,0x4eb,0x52b,0x52b,0x52b,0x409,0x44a,0x44a,0x44a,0x409,0x409,0x409,0x409,0x409,0x44a,0x44a,0x409,0x409,0x4eb,0x52b,0x52b,0x4eb,0x4eb,0x4eb,0x4eb,0x4eb,0x52b,0x44a,0x44a,0x4eb,0x52b,0x52b,0x52b,0x4eb,0x4eb,0x4eb,0x4eb,0x4eb,0x44a,0x44a,0x4eb,0x4eb,0x4eb,0x52b,0x52b,0x4eb,0x4eb,0x4eb,0x4eb,0x409,0x44a,0x52b,0x52b,0x4eb,0x52b,0x52b,0x52b,0x4eb,0x4eb,0x4eb,0x409,0x409,0x44a,0x44a,0x44a,0x52b,0x4eb,0x4eb,0x4eb,0x52b,0x52b,0x4eb,0x52b,0x4eb,0x44a,0x409,0x52b,0x52b,0x4eb,0x4eb,0x4eb,0x52b,0x52b,0x52b,0x4eb,0x409,0x409,0x44a,0x44a,0x44a,0x409,0x409,0x409,0x44a,0x44a,0x409,0x44a,0x409,0x52b,0x4eb,0x52b,0x52b,0x4eb,0x4eb,0x4eb,0x52b,0x52b,0x44a,0x409,0x4eb,0x4eb,0x52b,0x52b,0x52b,0x4eb,0x4eb,0x4eb,0x52b,0x44a,0x409,0x52b,0x4eb,0x52b,0x4eb,0x52b,0x52b,0x4eb,0x4eb,0x4eb,0x44a,0x44a,0x52b,0x4eb,0x4eb,0x4eb,0x52b,0x52b,0x52b,0x4eb,0x4eb,0x409,0x44a,0x44a,0x409,0x44a,0x52b,0x52b,0x4eb,0x52b,0x52b,0x52b,0x4eb,0x4eb,0x4eb,0x409,0x409,0x52b,0x52b,0x52b,0x4eb,0x52b,0x52b,0x52b,0x4eb,0x4eb,0x409,0x409,0x409,0x44a,0x44a,0x44a,0x409,0x44a,0x44a,0x44a,0x409,0x409,0x409,0x4eb,0x4eb,0x52b,0x52b,0x52b,0x4eb,0x52b,0x52b,0x52b,0x409,0x409,0x4eb,0x4eb,0x4eb,0x52b,0x52b,0x52b,0x4eb,0x52b,0x52b,0x44a,0x409,0x4eb,0x4eb,0x4eb,0x4eb,0x52b,0x52b,0x52b,0x4eb,0x52b,0x44a,0x44a,0x4eb,0x4eb,0x4eb,0x4eb,0x4eb,0x52b,0x52b,0x52b,0x4eb,0x44a,0x44a,0x44a,0x409,0x44a,0x52b,0x4eb,0x4eb,0x4eb,0x52b,0x52b,0x4eb,0x52b,0x4eb,0x44a,0x409,0x52b,0x52b,0x4eb,0x4eb,0x4eb,0x52b,0x52b,0x4eb,0x4eb,0x409,0x409,0x409,0x44a,0x44a,0x409,0x409,0x409,0x44a,0x44a,0x409,0x44a,0x409,0x52b,0x4eb,0x52b,0x52b,0x4eb,0x4eb,0x4eb,0x52b,0x52b,0x409,0x409,0x4eb,0x4eb,0x4eb,0x52b,0x52b,0x4eb,0x4eb,0x4eb,0x52b,0x44a,0x409,0x52b,0x4eb,0x52b,0x4eb,0x52b,0x52b,0x4eb,0x4eb,0x4eb,0x44a,0x44a,0x4eb,0x4eb,0x4eb,0x4eb,0x4eb,0x52b,0x52b,0x4eb,0x4eb,0x409,0x44a,0x44a,0x44a,0x44a,0x4eb,0x4eb,0x4eb,0x4eb,0x4eb,0x52b,0x52b,0x52b,0x4eb,0x44a,0x44a,0x52b,0x4eb,0x4eb,0x4eb,0x4eb,0x4eb,0x52b,0x52b,0x52b,0x409,0x44a,0x44a,0x44a,0x409,0x409,0x409,0x409,0x409,0x44a,0x44a,0x44a,0x409,0x52b,0x52b,0x52b,0x4eb,0x4eb,0x4eb,0x4eb,0x4eb,0x52b,0x44a,0x44a,0x4eb,0x52b,0x52b,0x52b,0x4eb,0x4eb,0x4eb,0x4eb,0x4eb,0x44a,0x44a,0x52b,0x4eb,0x52b,0x52b,0x52b,0x4eb,0x4eb,0x4eb,0x4eb,0x409,0x44a,0x52b,0x52b,0x4eb,0x52b,0x52b,0x52b,0x4eb,0x4eb,0x4eb,0x409,0x409,0x44a,0x44a,0x409,0x4eb,0x4eb,0x4eb,0x4eb,0x4eb,0x4eb,0x52b,0x52b,0x52b,0x44a,0x44a,0x4eb,0x4eb,0x4eb,0x4eb,0x4eb,0x4eb,0x4eb,0x52b,0x52b,0x44a,0x44a,0x44a,0x409,0x409,0x409,0x409,0x409,0x409,0x409,0x44a,0x44a,0x44a,0x52b,0x52b,0x4eb,0x4eb,0x4eb,0x4eb,0x4eb,0x4eb,0x4eb,0x44a,0x44a,0x52b,0x52b,0x52b,0x4eb,0x4eb,0x4eb,0x4eb,0x4eb,0x4eb,0x409,0x44a,0x52b,0x52b,0x52b,0x52b,0x4eb,0x4eb,0x4eb,0x4eb,0x4eb,0x409,0x409,0x52b,0x52b,0x52b,0x52b,0x52b,0x4eb,0x4eb,0x4eb,0x4eb,0x409,0x409,0x409,0x409,0x409,0x4eb,0x4eb,0x52b,0x4eb,0x4eb,0x4eb,0x4eb,0x52b,0x52b,0x44a,0x409,0x4eb,0x4eb,0x52b,0x4eb,0x52b,0x4eb,0x4eb,0x4eb,0x52b,0x44a,0x44a,0x409,0x409,0x409,0x409,0x44a,0x409,0x409,0x409,0x409,0x44a,0x44a,0x52b,0x4eb,0x4eb,0x4eb,0x52b,0x4eb,0x52b,0x4eb,0x4eb,0x409,0x44a,0x52b,0x52b,0x4eb,0x4eb,0x4eb,0x4eb,0x52b,0x4eb,0x4eb,0x409,0x409,0x52b,0x52b,0x52b,0x4eb,0x4eb,0x4eb,0x52b,0x4eb,0x52b,0x409,0x409,0x4eb,0x52b,0x52b,0x52b,0x4eb,0x4eb,0x4eb,0x4eb,0x52b,0x409,0x409,0x409,0x409,0x409,0x4eb,0x52b,0x52b,0x52b,0x4eb,0x4eb,0x4eb,0x4eb,0x52b,0x409,0x409,0x4eb,0x52b,0x52b,0x52b,0x52b,0x52b,0x4eb,0x4eb,0x4eb,0x44a,0x409,0x409,0x409,0x409,0x44a,0x44a,0x44a,0x409,0x409,0x409,0x409,0x44a,0x4eb,0x4eb,0x4eb,0x52b,0x52b,0x52b,0x52b,0x52b,0x4eb,0x409,0x409,0x52b,0x4eb,0x4eb,0x4eb,0x4eb,0x52b,0x52b,0x52b,0x4eb,0x409,0x409,0x4eb,0x52b,0x4eb,0x4eb,0x4eb,0x52b,0x52b,0x52b,0x52b,0x44a,0x409,0x4eb,0x4eb,0x52b,0x4eb,0x4eb,0x4eb,0x4eb,0x52b,0x52b,0x44a,0x409,0x409,0x409,0x409,0x44a,0x52b,0x52b,0x52b,0x52b,0x4eb,0x4eb,0x4eb,0x409,0x409,0x409,0x409,0x52b,0x52b,0x52b,0x52b,0x52b,0x4eb,0x4eb,0x409,0x409,0x409,0x409,0x409,0x44a,0x44a,0x44a,0x44a,0x44a,0x409,0x409,0x409,0x409,0x409,0x4eb,0x4eb,0x52b,0x52b,0x52b,0x52b,0x52b,0x409,0x409,0x409,0x409,0x4eb,0x4eb,0x4eb,0x52b,0x52b,0x52b,0x52b,0x44a,0x409,0x409,0x409,0x4eb,0x4eb,0x4eb,0x4eb,0x52b,0x52b,0x52b,0x44a,0x44a,0x409,0x409,0x4eb,0x4eb,0x4eb,0x4eb,0x4eb,0x52b,0x52b,0x44a,0x44a,0x44a,0x409,0x409,0x409,0x409,0x44a,0x44a,0x44a,0x409,0x409,0x409,0x409,0x44a,0x409,0x409,0x409,0x409,0x44a,0x44a,0x44a,0x409,0x409,0x409,0x409,0x44a,0x409,0x409,0x409,0x409,0x44a,0x44a,0x44a,0x409,0x409,0x409,0x409,0x44a,0x409,0x409,0x409,0x409,0x44a,0x44a,0x44a,0x409,0x409,0x409,0x409,0x44a,0x409,0x409,0x409,0x409,0x44a,0x44a,0x44a,0x409,0x409,0x409,0x409,0x44a,0x409,0x409,0x409,0x409,0x44a,0x44a,0x44a,0x409,0x409,0x409,0x409,0x44a,0x409,0x409,0x409,0x409,0x44a,0x44a,0x44a,0x409,0x409,0x409,0x409,0x409,0x409,0x44a,0x409,0x409,0x409,0x409,0x44a,0x44a,0x44a,0x409,0x409,0x409,0x409,0x44a,0x409,0x409,0x409,0x409,0x44a,0x44a,0x44a,0x409,0x409,0x409,0x409,0x44a,0x409,0x409,0x409,0x409,0x44a,0x44a,0x44a,0x409,0x409,0x409,0x409,0x44a,0x409,0x409,0x409,0x409,0x44a,0x44a,0x44a,0x409,0x409,0x409,0x409,0x44a,0x409,0x409,0x409,0x409,0x44a,0x44a,0x44a,0x409,0x409,0x409,0x409,0x44a,0x409,0x409,0x409,0x409,0x44a,0x44a,0x44a,0x409,0x409,0x409,0x409,0x44a,0x409,0x409,0x409,0x44a,0x409,0x409,0x4eb,0x4eb,0x4eb,0x4eb,0x4eb,0x52b,0x52b,0x44a,0x44a,0x44a,0x409,0x4eb,0x4eb,0x4eb,0x4eb,0x4eb,0x4eb,0x52b,0x44a,0x44a,0x44a,0x44a,0x4eb,0x4eb,0x4eb,0x4eb,0x4eb,0x4eb,0x4eb,0x44a,0x44a,0x44a,0x44a,0x52b,0x4eb,0x4eb,0x4eb,0x4eb,0x4eb,0x4eb,0x409,0x44a,0x44a,0x44a,0x52b,0x52b,0x4eb,0x4eb,0x4eb,0x4eb,0x4eb,0x409,0x409,0x44a,0x44a,0x52b,0x52b,0x52b,0x4eb,0x4eb,0x4eb,0x4eb,0x409,0x409,0x409,0x44a,0x52b,0x52b,0x52b,0x52b,0x4eb,0x4eb,0x4eb,0x409,0x409,0x409,0x409,0x44a,0x44a,0x4eb,0x4eb,0x4eb,0x4eb,0x4eb,0x52b,0x52b,0x52b,0x4eb,0x44a,0x44a,0x52b,0x4eb,0x4eb,0x4eb,0x4eb,0x4eb,0x52b,0x52b,0x4eb,0x409,0x409,0x52b,0x52b,0x4eb,0x4eb,0x4eb,0x4eb,0x4eb,0x52b,0x52b,0x44a,0x409,0x52b,0x52b,0x52b,0x4eb,0x4eb,0x4eb,0x4eb,0x4eb,0x52b,0x44a,0x409,0x4eb,0x4eb,0x52b,0x52b,0x4eb,0x4eb,0x4eb,0x4eb,0x4eb,0x44a,0x44a,0x52b,0x4eb,0x52b,0x52b,0x52b,0x4eb,0x4eb,0x4eb,0x4eb,0x409,0x44a,0x52b,0x4eb,0x4eb,0x4eb,0x52b,0x52b,0x4eb,0x4eb,0x4eb,0x409,0x409,0x44a,0x409,0x44a,0x52b,0x4eb,0x4eb,0x4eb,0x52b,0x52b,0x52b,0x4eb,0x4eb,0x409,0x44a,0x52b,0x52b,0x4eb,0x4eb,0x4eb,0x52b,0x52b,0x4eb,0x52b,0x409,0x44a,0x4eb,0x52b,0x52b,0x4eb,0x4eb,0x4eb,0x52b,0x52b,0x52b,0x409,0x409,0x4eb,0x52b,0x52b,0x52b,0x4eb,0x4eb,0x4eb,0x52b,0x52b,0x409,0x44a,0x4eb,0x52b,0x4eb,0x52b,0x52b,0x4eb,0x4eb,0x4eb,0x52b,0x44a,0x44a,0x4eb,0x4eb,0x4eb,0x52b,0x52b,0x52b,0x4eb,0x4eb,0x4eb,0x44a,0x44a,0x4eb,0x52b,0x4eb,0x52b,0x4eb,0x52b,0x52b,0x4eb,0x4eb,0x409,0x44a,0x44a,0x409,0x44a,0x52b,0x52b,0x4eb,0x52b,0x52b,0x52b,0x4eb,0x4eb,0x4eb,0x409,0x409,0x52b,0x52b,0x52b,0x4eb,0x52b,0x52b,0x52b,0x4eb,0x4eb,0x409,0x409,0x4eb,0x52b,0x52b,0x52b,0x4eb,0x52b,0x52b,0x52b,0x4eb,0x409,0x409,0x4eb,0x4eb,0x52b,0x52b,0x52b,0x4eb,0x52b,0x52b,0x52b,0x409,0x409,0x4eb,0x4eb,0x4eb,0x52b,0x52b,0x52b,0x4eb,0x52b,0x52b,0x44a,0x409,0x4eb,0x4eb,0x4eb,0x4eb,0x52b,0x52b,0x52b,0x4eb,0x52b,0x44a,0x44a,0x4eb,0x4eb,0x4eb,0x4eb,0x4eb,0x52b,0x52b,0x52b,0x4eb,0x44a,0x44a,0x44a,0x409,0x44a,0x52b,0x4eb,0x4eb,0x4eb,0x52b,0x52b,0x4eb,0x4eb,0x4eb,0x409,0x409,0x52b,0x52b,0x4eb,0x4eb,0x4eb,0x52b,0x52b,0x4eb,0x52b,0x409,0x44a,0x4eb,0x52b,0x52b,0x4eb,0x4eb,0x4eb,0x52b,0x52b,0x4eb,0x409,0x409,0x4eb,0x4eb,0x52b,0x52b,0x4eb,0x4eb,0x4eb,0x52b,0x52b,0x409,0x44a,0x4eb,0x52b,0x4eb,0x52b,0x52b,0x4eb,0x4eb,0x4eb,0x52b,0x44a,0x409,0x4eb,0x4eb,0x4eb,0x4eb,0x52b,0x52b,0x4eb,0x4eb,0x4eb,0x44a,0x44a,0x4eb,0x52b,0x4eb,0x52b,0x4eb,0x52b,0x52b,0x4eb,0x4eb,0x409,0x44a,0x44a,0x44a,0x44a,0x4eb,0x4eb,0x4eb,0x4eb,0x4eb,0x52b,0x52b,0x52b,0x4eb,0x44a,0x44a,0x52b,0x4eb,0x4eb,0x4eb,0x4eb,0x4eb,0x52b,0x52b,0x52b,0x409,0x44a,0x52b,0x52b,0x4eb,0x4eb,0x4eb,0x4eb,0x4eb,0x52b,0x52b,0x44a,0x409,0x52b,0x52b,0x52b,0x4eb,0x4eb,0x4eb,0x4eb,0x4eb,0x52b,0x44a,0x44a,0x4eb,0x52b,0x52b,0x52b,0x4eb,0x4eb,0x4eb,0x4eb,0x4eb,0x44a,0x44a,0x52b,0x4eb,0x52b,0x52b,0x52b,0x4eb,0x4eb,0x4eb,0x4eb,0x409,0x44a,0x52b,0x52b,0x4eb,0x52b,0x52b,0x52b,0x4eb,0x4eb,0x4eb,0x409,0x409,0x44a,0x44a,0x409,0x4eb,0x4eb,0x4eb,0x4eb,0x4eb,0x4eb,0x52b,0x52b,0x52b,0x44a,0x44a,0x4eb,0x4eb,0x4eb,0x4eb,0x4eb,0x4eb,0x4eb,0x52b,0x52b,0x44a,0x44a,0x52b,0x4eb,0x4eb,0x4eb,0x4eb,0x4eb,0x4eb,0x4eb,0x52b,0x44a,0x44a,0x52b,0x52b,0x4eb,0x4eb,0x4eb,0x4eb,0x4eb,0x4eb,0x4eb,0x44a,0x44a,0x52b,0x52b,0x52b,0x4eb,0x4eb,0x4eb,0x4eb,0x4eb,0x4eb,0x409,0x44a,0x52b,0x52b,0x52b,0x52b,0x4eb,0x4eb,0x4eb,0x4eb,0x4eb,0x409,0x409,0x52b,0x52b,0x52b,0x52b,0x52b,0x4eb,0x4eb,0x4eb,0x4eb,0x409,0x409,0x409,0x409,0x409,0x4eb,0x52b,0x4eb,0x52b,0x4eb,0x4eb,0x4eb,0x52b,0x52b,0x44a,0x409,0x4eb,0x4eb,0x4eb,0x52b,0x4eb,0x4eb,0x4eb,0x4eb,0x52b,0x44a,0x44a,0x4eb,0x4eb,0x4eb,0x52b,0x4eb,0x52b,0x4eb,0x4eb,0x4eb,0x44a,0x44a,0x52b,0x4eb,0x4eb,0x4eb,0x4eb,0x52b,0x4eb,0x4eb,0x4eb,0x409,0x44a,0x52b,0x52b,0x4eb,0x4eb,0x4eb,0x52b,0x4eb,0x52b,0x4eb,0x409,0x409,0x52b,0x52b,0x52b,0x4eb,0x4eb,0x4eb,0x4eb,0x52b,0x4eb,0x409,0x409,0x4eb,0x52b,0x52b,0x52b,0x4eb,0x4eb,0x4eb,0x52b,0x4eb,0x44a,0x409,0x409,0x409,0x409,0x52b,0x52b,0x52b,0x52b,0x52b,0x4eb,0x4eb,0x4eb,0x52b,0x409,0x409,0x4eb,0x4eb,0x52b,0x52b,0x52b,0x4eb,0x4eb,0x4eb,0x4eb,0x44a,0x409,0x4eb,0x4eb,0x52b,0x52b,0x52b,0x52b,0x52b,0x4eb,0x4eb,0x409,0x44a,0x4eb,0x4eb,0x4eb,0x4eb,0x52b,0x52b,0x52b,0x4eb,0x4eb,0x409,0x409,0x52b,0x4eb,0x4eb,0x4eb,0x52b,0x52b,0x52b,0x52b,0x52b,0x409,0x409,0x4eb,0x52b,0x4eb,0x4eb,0x4eb,0x4eb,0x52b,0x52b,0x52b,0x409,0x409,0x4eb,0x4eb,0x52b,0x4eb,0x4eb,0x4eb,0x52b,0x52b,0x52b,0x44a,0x44a,0x409,0x409,0x409,0x52b,0x52b,0x52b,0x52b,0x52b,0x4eb,0x4eb,0x4eb,0x4eb,0x409,0x409,0x4eb,0x52b,0x52b,0x52b,0x52b,0x52b,0x4eb,0x4eb,0x4eb,0x409,0x409,0x4eb,0x4eb,0x52b,0x52b,0x52b,0x52b,0x52b,0x4eb,0x4eb,0x409,0x409,0x4eb,0x4eb,0x4eb,0x52b,0x52b,0x52b,0x52b,0x52b,0x4eb,0x409,0x409,0x4eb,0x4eb,0x4eb,0x4eb,0x52b,0x52b,0x52b,0x52b,0x52b,0x409,0x409,0x4eb,0x4eb,0x4eb,0x4eb,0x4eb,0x52b,0x52b,0x52b,0x52b,0x44a,0x409,0x4eb,0x4eb,0x4eb,0x4eb,0x4eb,0x4eb,0x52b,0x52b,0x52b,0x44a,0x44a,0x409,0x409,0x409,0x4eb,0x52b,0x52b,0x52b,0x4eb,0x4eb,0x4eb,0x4eb,0x52b,0x409,0x409,0x4eb,0x4eb,0x52b,0x52b,0x52b,0x4eb,0x4eb,0x4eb,0x4eb,0x44a,0x409,0x4eb,0x4eb,0x4eb,0x52b,0x52b,0x52b,0x4eb,0x4eb,0x4eb,0x409,0x44a,0x4eb,0x4eb,0x4eb,0x4eb,0x52b,0x52b,0x52b,0x4eb,0x4eb,0x409,0x409,0x52b,0x4eb,0x4eb,0x4eb,0x4eb,0x52b,0x52b,0x52b,0x4eb,0x409,0x409,0x4eb,0x52b,0x4eb,0x4eb,0x4eb,0x4eb,0x52b,0x52b,0x52b,0x409,0x409,0x4eb,0x4eb,0x52b,0x4eb,0x4eb,0x4eb,0x4eb,0x52b,0x52b,0x44a,0x409,0x409,0x409,0x409,0x4eb,0x4eb,0x52b,0x4eb,0x4eb,0x4eb,0x4eb,0x52b,0x52b,0x44a,0x409,0x4eb,0x4eb,0x4eb,0x52b,0x4eb,0x4eb,0x4eb,0x4eb,0x52b,0x44a,0x44a,0x4eb,0x4eb,0x4eb,0x4eb,0x52b,0x4eb,0x4eb,0x4eb,0x4eb,0x44a,0x44a,0x52b,0x4eb,0x4eb,0x4eb,0x4eb,0x52b,0x4eb,0x4eb,0x4eb,0x409,0x44a,0x52b,0x52b,0x4eb,0x4eb,0x4eb,0x4eb,0x52b,0x4eb,0x4eb,0x409,0x409,0x52b,0x52b,0x52b,0x4eb,0x4eb,0x4eb,0x4eb,0x52b,0x4eb,0x409,0x409,0x4eb,0x52b,0x52b,0x52b,0x4eb,0x4eb,0x4eb,0x4eb,0x52b,0x409,0x409,0x409,0x44a,0x409,0x4eb,0x4eb,0x4eb,0x4eb,0x4eb,0x4eb,0x52b,0x52b,0x52b,0x44a,0x44a,0x4eb,0x4eb,0x4eb,0x4eb,0x4eb,0x4eb,0x4eb,0x52b,0x52b,0x44a,0x44a,0x52b,0x4eb,0x4eb,0x4eb,0x4eb,0x4eb,0x4eb,0x4eb,0x52b,0x44a,0x44a,0x52b,0x52b,0x4eb,0x4eb,0x4eb,0x4eb,0x4eb,0x4eb,0x4eb,0x44a,0x44a,0x52b,0x52b,0x52b,0x4eb,0x4eb,0x4eb,0x4eb,0x4eb,0x4eb,0x409,0x44a,0x52b,0x52b,0x52b,0x52b,0x4eb,0x4eb,0x4eb,0x4eb,0x4eb,0x409,0x409,0x52b,0x52b,0x52b,0x52b,0x52b,0x4eb,0x4eb,0x4eb,0x4eb,0x409,0x409,0x409,0x44a,0x44a,0x409,0x4eb,0x4eb,0x4eb,0x4eb,0x52b,0x52b,0x4eb,0x409,0x409,0x44a,0x44a,0x4eb,0x4eb,0x4eb,0x4eb,0x4eb,0x52b,0x52b,0x44a,0x409,0x44a,0x44a,0x52b,0x4eb,0x4eb,0x4eb,0x4eb,0x4eb,0x52b,0x44a,0x409,0x409,0x409,0x52b,0x52b,0x4eb,0x4eb,0x4eb,0x4eb,0x4eb,0x44a,0x44a,0x44a,0x409,0x52b,0x52b,0x52b,0x4eb,0x4eb,0x4eb,0x4eb,0x409,0x44a,0x44a,0x409,0x4eb,0x4eb,0x52b,0x52b,0x4eb,0x4eb,0x4eb,0x409,0x409,0x44a,0x44a,0x52b,0x4eb,0x52b,0x52b,0x52b,0x4eb,0x4eb,0x409,0x409,0x409,0x44a,0x44a,0x44a,0x44a,0x409,0x409,0x409,0x44a,0x44a,0x409,0x44a,0x409,0x44a,0x409,0x44a,0x44a,0x409,0x409,0x409,0x44a,0x44a,0x44a,0x409,0x409,0x409,0x44a,0x44a,0x44a,0x409,0x409,0x409,0x44a,0x44a,0x409,0x44a,0x409,0x44a,0x409,0x44a,0x44a,0x409,0x409,0x409,0x44a,0x44a,0x44a,0x409,0x409,0x409,0x44a,0x44a,0x44a,0x409,0x409,0x409,0x44a,0x44a,0x409,0x44a,0x409,0x44a,0x409,0x44a,0x44a,0x409,0x409,0x409,0x44a,0x44a,0x44a,0x409,0x409,0x409,0x44a,0x44a,0x44a,0x409,0x409,0x409,0x44a,0x44a,0x409,0x44a,0x44a,0x44a,0x409,0x44a,0x44a,0x44a,0x409,0x409,0x409,0x409,0x409,0x44a,0x44a,0x44a,0x409,0x44a,0x44a,0x44a,0x409,0x409,0x409,0x409,0x409,0x44a,0x44a,0x44a,0x409,0x44a,0x44a,0x44a,0x409,0x409,0x409,0x409,0x409,0x44a,0x44a,0x44a,0x409,0x44a,0x44a,0x44a,0x409,0x409,0x409,0x409,0x409,0x44a,0x44a,0x44a,0x409,0x44a,0x44a,0x44a,0x409,0x409,0x409,0x409,0x409,0x44a,0x44a,0x44a,0x409,0x44a,0x44a,0x44a,0x409,0x409,0x409,0x409,0x409,0x44a,0x44a,0x44a,0x409,0x44a,0x44a,0x44a,0x409,0x44a,0x44a,0x409,0x409,0x409,0x44a,0x44a,0x409,0x44a,0x409,0x44a,0x409,0x44a,0x44a,0x409,0x409,0x409,0x44a,0x44a,0x409,0x409,0x409,0x409,0x409,0x44a,0x44a,0x409,0x409,0x409,0x44a,0x44a,0x409,0x44a,0x409,0x44a,0x409,0x44a,0x44a,0x409,0x409,0x409,0x44a,0x44a,0x409,0x409,0x409,0x409,0x409,0x44a,0x44a,0x409,0x409,0x409,0x44a,0x44a,0x409,0x44a,0x409,0x44a,0x409,0x44a,0x44a,0x409,0x409,0x409,0x44a,0x44a,0x409,0x409,0x409,0x409,0x409,0x44a,0x44a,0x409,0x409,0x409,0x44a,0x44a,0x44a,0x44a,0x409,0x409,0x409,0x409,0x409,0x44a,0x44a,0x44a,0x409,0x44a,0x44a,0x44a,0x409,0x409,0x409,0x409,0x409,0x44a,0x44a,0x44a,0x409,0x44a,0x44a,0x44a,0x409,0x409,0x409,0x409,0x409,0x44a,0x44a,0x44a,0x409,0x44a,0x44a,0x44a,0x409,0x409,0x409,0x409,0x409,0x44a,0x44a,0x44a,0x409,0x44a,0x44a,0x44a,0x409,0x409,0x409,0x409,0x409,0x44a,0x44a,0x44a,0x409,0x44a,0x44a,0x44a,0x409,0x409,0x409,0x409,0x409,0x44a,0x44a,0x44a,0x409,0x44a,0x44a,0x44a,0x409,0x409,0x409,0x409,0x409,0x44a,0x44a,0x409,0x409,0x409,0x409,0x409,0x409,0x409,0x44a,0x44a,0x44a,0x44a,0x44a,0x409,0x409,0x409,0x409,0x409,0x409,0x409,0x44a,0x44a,0x44a,0x44a,0x44a,0x409,0x409,0x409,0x409,0x409,0x409,0x409,0x44a,0x44a,0x44a,0x44a,0x44a,0x409,0x409,0x409,0x409,0x409,0x409,0x409,0x44a,0x44a,0x44a,0x44a,0x44a,0x409,0x409,0x409,0x409,0x409,0x409,0x409,0x44a,0x44a,0x44a,0x44a,0x44a,0x409,0x409,0x409,0x409,0x409,0x409,0x409,0x44a,0x44a,0x44a,0x44a,0x44a,0x409,0x409,0x409,0x409,0x409,0x409,0x409,0x409,0x409,0x409,0x409,0x44a,0x409,0x409,0x409,0x409,0x44a,0x44a,0x44a,0x409,0x409,0x409,0x44a,0x409,0x44a,0x409,0x409,0x409,0x44a,0x44a,0x44a,0x409,0x409,0x409,0x409,0x44a,0x409,0x409,0x409,0x409,0x44a,0x44a,0x44a,0x409,0x409,0x409,0x44a,0x409,0x44a,0x409,0x409,0x409,0x44a,0x44a,0x44a,0x409,0x409,0x409,0x409,0x44a,0x409,0x409,0x409,0x409,0x44a,0x44a,0x44a,0x409,0x409,0x409,0x44a,0x409,0x44a,0x409,0x409,0x409,0x44a,0x44a,0x44a,0x409,0x409,0x409,0x409,0x44a,0x409,0x409,0x409,0x409,0x409,0x409,0x44a,0x44a,0x44a,0x409,0x409,0x409,0x409,0x44a,0x409,0x409,0x409,0x44a,0x44a,0x44a,0x44a,0x44a,0x409,0x409,0x409,0x44a,0x409,0x409,0x409,0x409,0x44a,0x44a,0x44a,0x409,0x409,0x409,0x409,0x44a,0x409,0x409,0x409,0x44a,0x44a,0x44a,0x44a,0x44a,0x409,0x409,0x409,0x44a,0x409,0x409,0x409,0x409,0x44a,0x44a,0x44a,0x409,0x409,0x409,0x409,0x44a,0x409,0x409,0x409,0x44a,0x44a,0x44a,0x44a,0x44a,0x409,0x409,0x409,0x44a,0x409,0x409,0x409,0x409,0x44a,0x44a,0x44a,0x409,0x409,0x409,0x409,0x44a,0x44a,0x44a,0x44a,0x44a,0x409,0x409,0x409,0x409,0x409,0x409,0x409,0x44a,0x44a,0x44a,0x44a,0x44a,0x409,0x409,0x409,0x409,0x409,0x409,0x409,0x44a,0x44a,0x44a,0x44a,0x44a,0x409,0x409,0x409,0x409,0x409,0x409,0x409,0x44a,0x44a,0x44a,0x44a,0x44a,0x409,0x409,0x409,0x409,0x409,0x409,0x409,0x44a,0x44a,0x44a,0x44a,0x44a,0x409,0x409,0x409,0x409,0x409,0x409,0x409,0x44a,0x44a,0x44a,0x44a,0x44a,0x409,0x409,0x409,0x409,0x409,0x409,0x409,0x44a,0x44a,0x44a,0x44a,0x44a,0x409,0x409,0x409,0x409,0x44a,0x44a,0x44a,0x409,0x409,0x409,0x409,0x44a,0x409,0x409,0x409,0x409,0x44a,0x44a,0x44a,0x409,0x409,0x409,0x409,0x44a,0x409,0x409,0x409,0x409,0x44a,0x44a,0x44a,0x409,0x409,0x409,0x409,0x44a,0x409,0x409,0x409,0x409,0x44a,0x44a,0x44a,0x409,0x409,0x409,0x409,0x44a,0x409,0x409,0x409,0x409,0x44a,0x44a,0x44a,0x409,0x409,0x409,0x409,0x44a,0x409,0x409,0x409,0x409,0x44a,0x44a,0x44a,0x409,0x409,0x409,0x409,0x44a,0x409,0x409,0x409,0x409,0x44a,0x44a,0x44a,0x409,0x409,0x409,0x409,0x409,0x409,0x44a,0x409,0x409,0x409,0x409,0x44a,0x44a,0x44a,0x409,0x409,0x409,0x409,0x44a,0x409,0x409,0x409,0x409,0x44a,0x44a,0x44a,0x409,0x409,0x409,0x409,0x44a,0x409,0x409,0x409,0x409,0x44a,0x44a,0x44a,0x409,0x409,0x409,0x409,0x44a,0x409,0x409,0x409,0x409,0x44a,0x44a,0x44a,0x409,0x409,0x409,0x409,0x44a,0x409,0x409,0x409,0x409,0x44a,0x44a,0x44a,0x409,0x409,0x409,0x409,0x44a,0x409,0x409,0x409,0x409,0x44a,0x44a,0x44a,0x409,0x409,0x409,0x409,0x44a,0x409,0x409,0x409,0x44a,0x409,0x409,0x409,0x409,0x409,0x409,0x409,0x44a,0x44a,0x44a,0x44a,0x44a,0x409,0x409,0x409,0x409,0x409,0x409,0x409,0x44a,0x44a,0x44a,0x44a,0x44a,0x409,0x409,0x409,0x409,0x409,0x409,0x409,0x44a,0x44a,0x44a,0x44a,0x44a,0x409,0x409,0x409,0x409,0x409,0x409,0x409,0x44a,0x44a,0x44a,0x44a,0x44a,0x409,0x409,0x409,0x409,0x409,0x409,0x409,0x44a,0x44a,0x44a,0x44a,0x44a,0x409,0x409,0x409,0x409,0x409,0x409,0x409,0x44a,0x44a,0x44a,0x44a,0x44a,0x409,0x409,0x409,0x409,0x409,0x409,0x409,0x44a,0x44a,0x409,0x409,0x409,0x409,0x409,0x44a,0x44a,0x44a,0x409,0x44a,0x44a,0x44a,0x409,0x409,0x409,0x409,0x409,0x44a,0x44a,0x409,0x409,0x409,0x44a,0x44a,0x409,0x409,0x409,0x409,0x409,0x44a,0x44a,0x44a,0x409,0x44a,0x44a,0x44a,0x409,0x409,0x409,0x409,0x409,0x44a,0x44a,0x409,0x409,0x409,0x44a,0x44a,0x409,0x409,0x409,0x409,0x409,0x44a,0x44a,0x44a,0x409,0x44a,0x44a,0x44a,0x409,0x409,0x409,0x409,0x409,0x44a,0x44a,0x409,0x409,0x409,0x44a,0x44a,0x409,0x409,0x409,0x409,0x409,0x44a,0x409,0x44a,0x44a,0x409,0x409,0x409,0x44a,0x44a,0x44a,0x409,0x409,0x409,0x44a,0x44a,0x44a,0x409,0x409,0x409,0x44a,0x44a,0x409,0x44a,0x409,0x44a,0x409,0x44a,0x44a,0x409,0x409,0x409,0x44a,0x44a,0x44a,0x409,0x409,0x409,0x44a,0x44a,0x44a,0x409,0x409,0x409,0x44a,0x44a,0x409,0x44a,0x409,0x44a,0x409,0x44a,0x44a,0x409,0x409,0x409,0x44a,0x44a,0x44a,0x409,0x409,0x409,0x44a,0x44a,0x44a,0x409,0x409,0x409,0x44a,0x44a,0x409,0x44a,0x409,0x44a,0x409,0x44a,0x44a,0x409,0x409,0x409,0x44a,0x44a,0x409,0x44a,0x44a,0x44a,0x409,0x44a,0x44a,0x44a,0x409,0x409,0x409,0x409,0x409,0x44a,0x44a,0x44a,0x409,0x44a,0x44a,0x44a,0x409,0x409,0x409,0x409,0x409,0x44a,0x44a,0x44a,0x409,0x44a,0x44a,0x44a,0x409,0x409,0x409,0x409,0x409,0x44a,0x44a,0x44a,0x409,0x44a,0x44a,0x44a,0x409,0x409,0x409,0x409,0x409,0x44a,0x44a,0x44a,0x409,0x44a,0x44a,0x44a,0x409,0x409,0x409,0x409,0x409,0x44a,0x44a,0x44a,0x409,0x44a,0x44a,0x44a,0x409,0x409,0x409,0x409,0x409,0x44a,0x44a,0x44a,0x409,0x44a,0x44a,0x44a,0x409,0x44a,0x44a,0x409,0x409,0x409,0x44a,0x44a,0x409,0x409,0x409,0x409,0x409,0x44a,0x44a,0x409,0x409,0x409,0x44a,0x44a,0x409,0x44a,0x409,0x44a,0x409,0x44a,0x44a,0x409,0x409,0x409,0x44a,0x44a,0x409,0x409,0x409,0x409,0x409,0x44a,0x44a,0x409,0x409,0x409,0x44a,0x44a,0x409,0x44a,0x409,0x44a,0x409,0x44a,0x44a,0x409,0x409,0x409,0x44a,0x44a,0x409,0x409,0x409,0x409,0x409,0x44a,0x44a,0x409,0x409,0x409,0x44a,0x44a,0x409,0x44a,0x409,0x44a,0x409,0x44a,0x44a,0x409,0x409,0x409,0x44a,0x44a,0x44a,0x44a,0x409,0x409,0x409,0x409,0x409,0x44a,0x44a,0x44a,0x409,0x44a,0x44a,0x44a,0x409,0x409,0x409,0x409,0x409,0x44a,0x44a,0x44a,0x409,0x44a,0x44a,0x44a,0x409,0x409,0x409,0x409,0x409,0x44a,0x44a,0x44a,0x409,0x44a,0x44a,0x44a,0x409,0x409,0x409,0x409,0x409,0x44a,0x44a,0x44a,0x409,0x44a,0x44a,0x44a,0x409,0x409,0x409,0x409,0x409,0x44a,0x44a,0x44a,0x409,0x44a,0x44a,0x44a,0x409,0x409,0x409,0x409,0x409,0x44a,0x44a,0x44a,0x409,0x44a,0x44a,0x44a,0x409,0x409,0x409,0x409,0x409,0x44a,0x44a,0x409,0x409,0x409,0x409,0x409,0x409,0x409,0x44a,0x44a,0x44a,0x44a,0x44a,0x409,0x409,0x409,0x409,0x409,0x409,0x409,0x44a,0x44a,0x44a,0x44a,0x44a,0x409,0x409,0x409,0x409,0x409,0x409,0x409,0x44a,0x44a,0x44a,0x44a,0x44a,0x409,0x409,0x409,0x409,0x409,0x409,0x409,0x44a,0x44a,0x44a,0x44a,0x44a,0x409,0x409,0x409,0x409,0x409,0x409,0x409,0x44a,0x44a,0x44a,0x44a,0x44a,0x409,0x409,0x409,0x409,0x409,0x409,0x409,0x44a,0x44a,0x44a,0x44a,0x44a,0x409,0x409,0x409,0x409,0x409,0x409,0x409,0x409,0x409,0x409,0x44a,0x409,0x44a,0x409,0x409,0x409,0x44a,0x44a,0x44a,0x409,0x409,0x409,0x409,0x44a,0x409,0x409,0x409,0x409,0x44a,0x44a,0x44a,0x409,0x409,0x409,0x44a,0x409,0x44a,0x409,0x409,0x409,0x44a,0x44a,0x44a,0x409,0x409,0x409,0x409,0x44a,0x409,0x409,0x409,0x409,0x44a,0x44a,0x44a,0x409,0x409,0x409,0x44a,0x409,0x44a,0x409,0x409,0x409,0x44a,0x44a,0x44a,0x409,0x409,0x409,0x409,0x44a,0x409,0x409,0x409,0x409,0x44a,0x44a,0x44a,0x409,0x409,0x409,0x44a,0x409,0x44a,0x409,0x409,0x409,0x409,0x44a,0x44a,0x44a,0x44a,0x44a,0x409,0x409,0x409,0x44a,0x409,0x409,0x409,0x409,0x44a,0x44a,0x44a,0x409,0x409,0x409,0x409,0x44a,0x409,0x409,0x409,0x44a,0x44a,0x44a,0x44a,0x44a,0x409,0x409,0x409,0x44a,0x409,0x409,0x409,0x409,0x44a,0x44a,0x44a,0x409,0x409,0x409,0x409,0x44a,0x409,0x409,0x409,0x44a,0x44a,0x44a,0x44a,0x44a,0x409,0x409,0x409,0x44a,0x409,0x409,0x409,0x409,0x44a,0x44a,0x44a,0x409,0x409,0x409,0x409,0x44a,0x409,0x409,0x409,0x44a,0x44a,0x44a,0x44a,0x44a,0x409,0x409,0x409,0x44a,0x44a,0x44a,0x44a,0x44a,0x409,0x409,0x409,0x409,0x409,0x409,0x409,0x44a,0x44a,0x44a,0x44a,0x44a,0x409,0x409,0x409,0x409,0x409,0x409,0x409,0x44a,0x44a,0x44a,0x44a,0x44a,0x409,0x409,0x409,0x409,0x409,0x409,0x409,0x44a,0x44a,0x44a,0x44a,0x44a,0x409,0x409,0x409,0x409,0x409,0x409,0x409,0x44a,0x44a,0x44a,0x44a,0x44a,0x409,0x409,0x409,0x409,0x409,0x409,0x409,0x44a,0x44a,0x44a,0x44a,0x44a,0x409,0x409,0x409,0x409,0x409,0x409,0x409,0x44a,0x44a,0x44a,0x44a,0x44a,0x409,0x409,0x409,0x409,0x44a,0x44a,0x44a,0x409,0x409,0x409,0x409,0x44a,0x409,0x409,0x409,0x409,0x44a,0x44a,0x44a,0x409,0x409,0x409,0x409,0x44a,0x409,0x409,0x409,0x409,0x44a,0x44a,0x44a,0x409,0x409,0x409,0x409,0x44a,0x409,0x409,0x409,0x409,0x44a,0x44a,0x44a,0x409,0x409,0x409,0x409,0x44a,0x409,0x409,0x409,0x409,0x44a,0x44a,0x44a,0x409,0x409,0x409,0x409,0x44a,0x409,0x409,0x409,0x409,0x44a,0x44a,0x44a,0x409,0x409,0x409,0x409,0x44a,0x409,0x409,0x409,0x409,0x44a,0x44a,0x44a,0x409,0x409,0x409,0x409,0x409,0x409,0x44a,0x409,0x409,0x409,0x409,0x44a,0x44a,0x44a,0x409,0x409,0x409,0x409,0x44a,0x409,0x409,0x409,0x409,0x44a,0x44a,0x44a,0x409,0x409,0x409,0x409,0x44a,0x409,0x409,0x409,0x409,0x44a,0x44a,0x44a,0x409,0x409,0x409,0x409,0x44a,0x409,0x409,0x409,0x409,0x44a,0x44a,0x44a,0x409,0x409,0x409,0x409,0x44a,0x409,0x409,0x409,0x409,0x44a,0x44a,0x44a,0x409,0x409,0x409,0x409,0x44a,0x409,0x409,0x409,0x409,0x44a,0x44a,0x44a,0x409,0x409,0x409,0x409,0x44a,0x409,0x409,0x409,0x44a,0x409,0x409,0x409,0x409,0x409,0x409,0x409,0x44a,0x44a,0x44a,0x44a,0x44a,0x409,0x409,0x409,0x409,0x409,0x409,0x409,0x44a,0x44a,0x44a,0x44a,0x44a,0x409,0x409,0x409,0x409,0x409,0x409,0x409,0x44a,0x44a,0x44a,0x44a,0x44a,0x409,0x409,0x409,0x409,0x409,0x409,0x409,0x44a,0x44a,0x44a,0x44a,0x44a,0x409,0x409,0x409,0x409,0x409,0x409,0x409,0x44a,0x44a,0x44a,0x44a,0x44a,0x409,0x409,0x409,0x409,0x409,0x409,0x409,0x44a,0x44a,0x44a,0x44a,0x44a,0x409,0x409,0x409,0x409,0x409,0x409,0x409,0x44a,0x44a,0x409,0x409,0x409,0x409,0x409,0x44a,0x44a,0x409,0x409,0x409,0x44a,0x44a,0x409,0x409,0x409,0x409,0x409,0x44a,0x44a,0x44a,0x409,0x44a,0x44a,0x44a,0x409,0x409,0x409,0x409,0x409,0x44a,0x44a,0x409,0x409,0x409,0x44a,0x44a,0x409,0x409,0x409,0x409,0x409,0x44a,0x44a,0x44a,0x409,0x44a,0x44a,0x44a,0x409,0x409,0x409,0x409,0x409,0x44a,0x44a,0x409,0x409,0x409,0x44a,0x44a,0x409,0x409,0x409,0x409,0x409,0x44a,0x44a,0x44a,0x409,0x44a,0x44a,0x44a,0x409,0x409,0x409,0x409,0x409,0x44a,0x44a,0x44a,0x44a,0x409,0x409,0x409,0x44a,0x44a,0x409,0x44a,0x409,0x44a,0x409,0x44a,0x44a,0x409,0x409,0x409,0x44a,0x44a,0x44a,0x409,0x409,0x409,0x44a,0x44a,0x44a,0x409,0x409,0x409,0x44a,0x44a,0x409,0x44a,0x409,0x44a,0x409,0x44a,0x44a,0x409,0x409,0x409,0x44a,0x44a,0x44a,0x409,0x409,0x409,0x44a,0x44a,0x44a,0x409,0x409,0x409,0x44a,0x44a,0x409,0x44a,0x409,0x44a,0x409,0x44a,0x44a,0x409,0x409,0x409,0x44a,0x44a,0x44a,0x409,0x409,0x409,0x44a,0x44a,0x44a,0x409,0x409,0x409,0x44a,0x44a,0x409,0x44a,0x44a,0x44a,0x409,0x44a,0x44a,0x44a,0x409,0x409,0x409,0x409,0x409,0x44a,0x44a,0x44a,0x409,0x44a,0x44a,0x44a,0x409,0x409,0x409,0x409,0x409,0x44a,0x44a,0x44a,0x409,0x44a,0x44a,0x44a,0x409,0x409,0x409,0x409,0x409,0x44a,0x44a,0x44a,0x409,0x44a,0x44a,0x44a,0x409,0x409,0x409,0x409,0x409,0x44a,0x44a,0x44a,0x409,0x44a,0x44a,0x44a,0x409,0x409,0x409,0x409,0x409,0x44a,0x44a,0x44a,0x409,0x44a,0x44a,0x44a,0x409,0x409,0x409,0x409,0x409,0x44a,0x44a,0x44a,0x409,0x44a,0x44a,0x44a,0x409,0x44a,0x44a,0x409,0x409,0x409,0x44a,0x44a,0x409,0x44a,0x409,0x44a,0x409,0x44a,0x44a,0x409,0x409,0x409,0x44a,0x44a,0x409,0x409,0x409,0x409,0x409,0x44a,0x44a,0x409,0x409,0x409,0x44a,0x44a,0x409,0x44a,0x409,0x44a,0x409,0x44a,0x44a,0x409,0x409,0x409,0x44a,0x44a,0x409,0x409,0x409,0x409,0x409,0x44a,0x44a,0x409,0x409,0x409,0x44a,0x44a,0x409,0x44a,0x409,0x44a,0x409,0x44a,0x44a,0x409,0x409,0x409,0x44a,0x44a,0x409,0x409,0x409,0x409,0x409,0x44a,0x44a,0x409,0x409,0x409,0x44a,0x44a,0x44a,0x44a,0x409,0x409,0x409,0x409,0x409,0x44a,0x44a,0x44a,0x409,0x44a,0x44a,0x44a,0x409,0x409,0x409,0x409,0x409,0x44a,0x44a,0x44a,0x409,0x44a,0x44a,0x44a,0x409,0x409,0x409,0x409,0x409,0x44a,0x44a,0x44a,0x409,0x44a,0x44a,0x44a,0x409,0x409,0x409,0x409,0x409,0x44a,0x44a,0x44a,0x409,0x44a,0x44a,0x44a,0x409,0x409,0x409,0x409,0x409,0x44a,0x44a,0x44a,0x409,0x44a,0x44a,0x44a,0x409,0x409,0x409,0x409,0x409,0x44a,0x44a,0x44a,0x409,0x44a,0x44a,0x44a,0x409,0x409,0x409,0x409,0x409,0x44a,0x44a,0x409,0x409,0x409,0x409,0x409,0x409,0x409,0x44a,0x44a,0x44a,0x44a,0x44a,0x409,0x409,0x409,0x409,0x409,0x409,0x409,0x44a,0x44a,0x44a,0x44a,0x44a,0x409,0x409,0x409,0x409,0x409,0x409,0x409,0x44a,0x44a,0x44a,0x44a,0x44a,0x409,0x409,0x409,0x409,0x409,0x409,0x409,0x44a,0x44a,0x44a,0x44a,0x44a,0x409,0x409,0x409,0x409,0x409,0x409,0x409,0x44a,0x44a,0x44a,0x44a,0x44a,0x409,0x409,0x409,0x409,0x409,0x409,0x409,0x44a,0x44a,0x44a,0x44a,0x44a,0x409,0x409,0x409,0x409,0x409,0x409,0x409,0x409,0x409,0x409,0x409,0x44a,0x409,0x409,0x409,0x409,0x44a,0x44a,0x44a,0x409,0x409,0x409,0x44a,0x409,0x44a,0x409,0x409,0x409,0x44a,0x44a,0x44a,0x409,0x409,0x409,0x409,0x44a,0x409,0x409,0x409,0x409,0x44a,0x44a,0x44a,0x409,0x409,0x409,0x44a,0x409,0x44a,0x409,0x409,0x409,0x44a,0x44a,0x44a,0x409,0x409,0x409,0x409,0x44a,0x409,0x409,0x409,0x409,0x44a,0x44a,0x44a,0x409,0x409,0x409,0x44a,0x409,0x44a,0x409,0x409,0x409,0x44a,0x44a,0x44a,0x409,0x409,0x409,0x409,0x44a,0x409,0x409,0x409,0x409,0x409,0x409,0x44a,0x44a,0x44a,0x409,0x409,0x409,0x409,0x44a,0x409,0x409,0x409,0x44a,0x44a,0x44a,0x44a,0x44a,0x409,0x409,0x409,0x44a,0x409,0x409,0x409,0x409,0x44a,0x44a,0x44a,0x409,0x409,0x409,0x409,0x44a,0x409,0x409,0x409,0x44a,0x44a,0x44a,0x44a,0x44a,0x409,0x409,0x409,0x44a,0x409,0x409,0x409,0x409,0x44a,0x44a,0x44a,0x409,0x409,0x409,0x409,0x44a,0x409,0x409,0x409,0x44a,0x44a,0x44a,0x44a,0x44a,0x409,0x409,0x409,0x44a,0x409,0x409,0x409,0x409,0x44a,0x44a,0x44a,0x409,0x409,0x409,0x409,0x44a,0x44a,0x44a,0x44a,0x44a,0x409,0x409,0x409,0x409,0x409,0x409,0x409,0x44a,0x44a,0x44a,0x44a,0x44a,0x409,0x409,0x409,0x409,0x409,0x409,0x409,0x44a,0x44a,0x44a,0x44a,0x44a,0x409,0x409,0x409,0x409,0x409,0x409,0x409,0x44a,0x44a,0x44a,0x44a,0x44a,0x409,0x409,0x409,0x409,0x409,0x409,0x409,0x44a,0x44a,0x44a,0x44a,0x44a,0x409,0x409,0x409,0x409,0x409,0x409,0x409,0x44a,0x44a,0x44a,0x44a,0x44a,0x409,0x409,0x409,0x409,0x409,0x409,0x409,0x44a,0x44a,0x44a,0x44a,0x44a,0x409};
Image backgroundImage(backgroundData, ColorMode::rgb565);
    5722:	4c33      	ldr	r4, [pc, #204]	; (57f0 <_GLOBAL__sub_I_backgroundImage+0xd0>)
    5724:	2701      	movs	r7, #1
    5726:	1c3b      	adds	r3, r7, #0
    5728:	9700      	str	r7, [sp, #0]
    572a:	1c20      	adds	r0, r4, #0
    572c:	4931      	ldr	r1, [pc, #196]	; (57f4 <_GLOBAL__sub_I_backgroundImage+0xd4>)
    572e:	2200      	movs	r2, #0
    5730:	f005 fc86 	bl	b040 <_ZN14Gamebuino_Meta5ImageC1EPKtNS_9ColorModeEth>
    5734:	4e30      	ldr	r6, [pc, #192]	; (57f8 <_GLOBAL__sub_I_backgroundImage+0xd8>)
    5736:	4d31      	ldr	r5, [pc, #196]	; (57fc <_GLOBAL__sub_I_backgroundImage+0xdc>)
    5738:	1c31      	adds	r1, r6, #0
    573a:	1c2a      	adds	r2, r5, #0
    573c:	1c20      	adds	r0, r4, #0

const uint16_t cardSpriteData[] = {9,14,0x1f,0xffff,0xffff,0xffff,0xffff,0xffff,0xffff,0xffff,0x1f,0xffff,0xffff,0xffff,0xffff,0xffff,0xffff,0xffff,0xffff,0xffff,0xffff,0xffff,0xffff,0xffff,0xffff,0xffff,0xffff,0xffff,0xffff,0xffff,0xffff,0xffff,0xffff,0xffff,0xffff,0xffff,0xffff,0xffff,0xffff,0xffff,0xffff,0xffff,0xffff,0xffff,0xffff,0xffff,0xffff,0xffff,0xffff,0xffff,0xffff,0xffff,0xffff,0xffff,0xffff,0xffff,0xffff,0xffff,0xffff,0xffff,0xffff,0xffff,0xffff,0xffff,0xffff,0xffff,0xffff,0xffff,0xffff,0xffff,0xffff,0xffff,0xffff,0xffff,0xffff,0xffff,0xffff,0xffff,0xffff,0xffff,0xffff,0xffff,0xffff,0xffff,0xffff,0xffff,0xffff,0xffff,0xffff,0xffff,0xffff,0xffff,0xffff,0xffff,0xffff,0xffff,0xffff,0xffff,0xffff,0xffff,0xffff,0xffff,0xffff,0xffff,0xffff,0xffff,0xffff,0xffff,0xffff,0xffff,0xffff,0xffff,0xffff,0xffff,0xffff,0xffff,0xffff,0xffff,0xffff,0x1f,0xffff,0xffff,0xffff,0xffff,0xffff,0xffff,0xffff,0x1f,0x1f,0xfeb2,0xfeb2,0xfeb2,0xfeb2,0xfeb2,0xfeb2,0xfeb2,0x1f,0xfeb2,0xfeb2,0xfeb2,0xfeb2,0xfeb2,0xfeb2,0xfeb2,0xfeb2,0xfeb2,0xfeb2,0xfeb2,0xfeb2,0xfeb2,0xfeb2,0xfeb2,0xfeb2,0xfeb2,0xfeb2,0xfeb2,0xfeb2,0xfeb2,0xfeb2,0xcc68,0xfeb2,0xfeb2,0xfeb2,0xfeb2,0xfeb2,0xfeb2,0xfeb2,0xfeb2,0xcc68,0xfeb2,0xfeb2,0xfeb2,0xfeb2,0xfeb2,0xfeb2,0xcc68,0xcc68,0xcc68,0xcc68,0xcc68,0xfeb2,0xfeb2,0xfeb2,0xfeb2,0xfeb2,0xfeb2,0xfeb2,0xfeb2,0xfeb2,0xfeb2,0xfeb2,0xfeb2,0xfeb2,0xfeb2,0xcc68,0xcc68,0xcc68,0xfeb2,0xfeb2,0xfeb2,0xfeb2,0xfeb2,0xcc68,0xfeb2,0xcc68,0xfeb2,0xcc68,0xfeb2,0xfeb2,0xfeb2,0xfeb2,0xfeb2,0xfeb2,0xfeb2,0xfeb2,0xfeb2,0xfeb2,0xfeb2,0xfeb2,0xfeb2,0xfeb2,0xfeb2,0xfd42,0xfeb2,0xfeb2,0xfeb2,0xfeb2,0xfeb2,0xfeb2,0xfeb2,0xfeb2,0xfeb2,0xfeb2,0xfeb2,0xfeb2,0xfeb2,0xfeb2,0xfeb2,0xfeb2,0xfeb2,0xfeb2,0xfeb2,0xfeb2,0xfeb2,0xfeb2,0x1f,0xfeb2,0xfeb2,0xfeb2,0xfeb2,0xfeb2,0xfeb2,0xfeb2,0x1f};
Image cardSprite(cardSpriteData, ColorMode::rgb565, 2, 0);
    573e:	2400      	movs	r4, #0
#include "sprites.h"

const uint16_t backgroundData[] = {80,64,0x44a,0x409,0x409,0x409,0x409,0x409,0x409,0x409,0x44a,0x44a,0x44a,0x44a,0x44a,0x409,0x409,0x409,0x409,0x409,0x409,0x409,0x44a,0x44a,0x44a,0x44a,0x44a,0x409,0x409,0x409,0x409,0x409,0x409,0x409,0x44a,0x44a,0x44a,0x44a,0x44a,0x409,0x409,0x409,0x409,0x409,0x409,0x409,0x44a,0x44a,0x44a,0x44a,0x44a,0x409,0x409,0x409,0x409,0x409,0x409,0x409,0x44a,0x44a,0x44a,0x44a,0x44a,0x409,0x409,0x409,0x409,0x409,0x409,0x409,0x44a,0x44a,0x44a,0x44a,0x44a,0x409,0x409,0x409,0x409,0x409,0x409,0x409,0x409,0x409,0x409,0x44a,0x409,0x44a,0x409,0x409,0x409,0x44a,0x44a,0x44a,0x409,0x409,0x409,0x409,0x44a,0x409,0x409,0x409,0x409,0x44a,0x44a,0x44a,0x409,0x409,0x409,0x44a,0x409,0x44a,0x409,0x409,0x409,0x44a,0x44a,0x44a,0x409,0x409,0x409,0x409,0x44a,0x409,0x409,0x409,0x409,0x44a,0x44a,0x44a,0x409,0x409,0x409,0x44a,0x409,0x44a,0x409,0x409,0x409,0x44a,0x44a,0x44a,0x409,0x409,0x409,0x409,0x44a,0x409,0x409,0x409,0x409,0x44a,0x44a,0x44a,0x409,0x409,0x409,0x44a,0x409,0x44a,0x409,0x409,0x409,0x409,0x44a,0x52b,0x52b,0x52b,0x52b,0x4eb,0x4eb,0x4eb,0x44a,0x409,0x409,0x409,0x4eb,0x52b,0x52b,0x52b,0x4eb,0x4eb,0x4eb,0x409,0x44a,0x409,0x409,0x409,0x44a,0x44a,0x44a,0x44a,0x44a,0x409,0x409,0x409,0x44a,0x409,0x4eb,0x4eb,0x4eb,0x52b,0x52b,0x52b,0x4eb,0x409,0x409,0x409,0x44a,0x4eb,0x4eb,0x4eb,0x52b,0x52b,0x52b,0x52b,0x44a,0x409,0x409,0x409,0x52b,0x4eb,0x4eb,0x4eb,0x4eb,0x52b,0x52b,0x44a,0x409,0x409,0x409,0x4eb,0x52b,0x4eb,0x4eb,0x4eb,0x52b,0x52b,0x44a,0x44a,0x44a,0x409,0x409,0x409,0x52b,0x52b,0x52b,0x52b,0x52b,0x4eb,0x4eb,0x4eb,0x4eb,0x409,0x409,0x4eb,0x52b,0x52b,0x52b,0x52b,0x52b,0x4eb,0x4eb,0x4eb,0x409,0x409,0x409,0x409,0x44a,0x44a,0x44a,0x44a,0x44a,0x409,0x409,0x409,0x409,0x4eb,0x4eb,0x4eb,0x52b,0x52b,0x52b,0x52b,0x52b,0x4eb,0x409,0x409,0x4eb,0x4eb,0x4eb,0x4eb,0x52b,0x52b,0x52b,0x52b,0x52b,0x409,0x409,0x4eb,0x4eb,0x4eb,0x4eb,0x4eb,0x52b,0x52b,0x52b,0x52b,0x44a,0x409,0x4eb,0x4eb,0x4eb,0x4eb,0x4eb,0x4eb,0x52b,0x52b,0x52b,0x44a,0x44a,0x409,0x409,0x409,0x4eb,0x52b,0x52b,0x52b,0x4eb,0x4eb,0x4eb,0x4eb,0x52b,0x409,0x409,0x4eb,0x4eb,0x52b,0x52b,0x52b,0x4eb,0x4eb,0x4eb,0x4eb,0x44a,0x409,0x409,0x409,0x409,0x44a,0x44a,0x44a,0x409,0x409,0x409,0x409,0x44a,0x4eb,0x4eb,0x4eb,0x4eb,0x52b,0x52b,0x52b,0x4eb,0x4eb,0x409,0x409,0x52b,0x4eb,0x4eb,0x4eb,0x4eb,0x52b,0x52b,0x52b,0x4eb,0x409,0x409,0x4eb,0x52b,0x4eb,0x4eb,0x4eb,0x4eb,0x52b,0x52b,0x52b,0x409,0x409,0x4eb,0x4eb,0x52b,0x4eb,0x4eb,0x4eb,0x4eb,0x52b,0x52b,0x44a,0x409,0x409,0x409,0x409,0x4eb,0x4eb,0x52b,0x4eb,0x4eb,0x4eb,0x4eb,0x52b,0x52b,0x44a,0x409,0x4eb,0x4eb,0x4eb,0x52b,0x4eb,0x4eb,0x4eb,0x4eb,0x52b,0x44a,0x44a,0x409,0x409,0x409,0x409,0x44a,0x409,0x409,0x409,0x409,0x44a,0x44a,0x52b,0x4eb,0x4eb,0x4eb,0x4eb,0x52b,0x4eb,0x4eb,0x4eb,0x409,0x44a,0x52b,0x52b,0x4eb,0x4eb,0x4eb,0x4eb,0x52b,0x4eb,0x4eb,0x409,0x409,0x52b,0x52b,0x52b,0x4eb,0x4eb,0x4eb,0x4eb,0x52b,0x4eb,0x409,0x409,0x4eb,0x52b,0x52b,0x52b,0x4eb,0x4eb,0x4eb,0x4eb,0x52b,0x409,0x409,0x409,0x44a,0x409,0x4eb,0x4eb,0x4eb,0x4eb,0x4eb,0x4eb,0x52b,0x52b,0x52b,0x44a,0x44a,0x4eb,0x4eb,0x4eb,0x4eb,0x4eb,0x4eb,0x4eb,0x52b,0x52b,0x44a,0x44a,0x44a,0x409,0x409,0x409,0x409,0x409,0x409,0x409,0x44a,0x44a,0x44a,0x52b,0x52b,0x4eb,0x4eb,0x4eb,0x4eb,0x4eb,0x4eb,0x4eb,0x44a,0x44a,0x52b,0x52b,0x52b,0x4eb,0x4eb,0x4eb,0x4eb,0x4eb,0x4eb,0x409,0x44a,0x52b,0x52b,0x52b,0x52b,0x4eb,0x4eb,0x4eb,0x4eb,0x4eb,0x409,0x409,0x52b,0x52b,0x52b,0x52b,0x52b,0x4eb,0x4eb,0x4eb,0x4eb,0x409,0x409,0x409,0x44a,0x44a,0x4eb,0x4eb,0x4eb,0x4eb,0x4eb,0x52b,0x52b,0x4eb,0x4eb,0x409,0x44a,0x52b,0x4eb,0x4eb,0x4eb,0x4eb,0x4eb,0x52b,0x52b,0x52b,0x409,0x44a,0x44a,0x44a,0x409,0x409,0x409,0x409,0x409,0x44a,0x44a,0x409,0x409,0x4eb,0x52b,0x52b,0x4eb,0x4eb,0x4eb,0x4eb,0x4eb,0x52b,0x44a,0x44a,0x4eb,0x52b,0x52b,0x52b,0x4eb,0x4eb,0x4eb,0x4eb,0x4eb,0x44a,0x44a,0x4eb,0x4eb,0x4eb,0x52b,0x52b,0x4eb,0x4eb,0x4eb,0x4eb,0x409,0x44a,0x52b,0x52b,0x4eb,0x52b,0x52b,0x52b,0x4eb,0x4eb,0x4eb,0x409,0x409,0x44a,0x44a,0x44a,0x52b,0x4eb,0x4eb,0x4eb,0x52b,0x52b,0x4eb,0x52b,0x4eb,0x44a,0x409,0x52b,0x52b,0x4eb,0x4eb,0x4eb,0x52b,0x52b,0x52b,0x4eb,0x409,0x409,0x44a,0x44a,0x44a,0x409,0x409,0x409,0x44a,0x44a,0x409,0x44a,0x409,0x52b,0x4eb,0x52b,0x52b,0x4eb,0x4eb,0x4eb,0x52b,0x52b,0x44a,0x409,0x4eb,0x4eb,0x52b,0x52b,0x52b,0x4eb,0x4eb,0x4eb,0x52b,0x44a,0x409,0x52b,0x4eb,0x52b,0x4eb,0x52b,0x52b,0x4eb,0x4eb,0x4eb,0x44a,0x44a,0x52b,0x4eb,0x4eb,0x4eb,0x52b,0x52b,0x52b,0x4eb,0x4eb,0x409,0x44a,0x44a,0x409,0x44a,0x52b,0x52b,0x4eb,0x52b,0x52b,0x52b,0x4eb,0x4eb,0x4eb,0x409,0x409,0x52b,0x52b,0x52b,0x4eb,0x52b,0x52b,0x52b,0x4eb,0x4eb,0x409,0x409,0x409,0x44a,0x44a,0x44a,0x409,0x44a,0x44a,0x44a,0x409,0x409,0x409,0x4eb,0x4eb,0x52b,0x52b,0x52b,0x4eb,0x52b,0x52b,0x52b,0x409,0x409,0x4eb,0x4eb,0x4eb,0x52b,0x52b,0x52b,0x4eb,0x52b,0x52b,0x44a,0x409,0x4eb,0x4eb,0x4eb,0x4eb,0x52b,0x52b,0x52b,0x4eb,0x52b,0x44a,0x44a,0x4eb,0x4eb,0x4eb,0x4eb,0x4eb,0x52b,0x52b,0x52b,0x4eb,0x44a,0x44a,0x44a,0x409,0x44a,0x52b,0x4eb,0x4eb,0x4eb,0x52b,0x52b,0x4eb,0x52b,0x4eb,0x44a,0x409,0x52b,0x52b,0x4eb,0x4eb,0x4eb,0x52b,0x52b,0x4eb,0x4eb,0x409,0x409,0x409,0x44a,0x44a,0x409,0x409,0x409,0x44a,0x44a,0x409,0x44a,0x409,0x52b,0x4eb,0x52b,0x52b,0x4eb,0x4eb,0x4eb,0x52b,0x52b,0x409,0x409,0x4eb,0x4eb,0x4eb,0x52b,0x52b,0x4eb,0x4eb,0x4eb,0x52b,0x44a,0x409,0x52b,0x4eb,0x52b,0x4eb,0x52b,0x52b,0x4eb,0x4eb,0x4eb,0x44a,0x44a,0x4eb,0x4eb,0x4eb,0x4eb,0x4eb,0x52b,0x52b,0x4eb,0x4eb,0x409,0x44a,0x44a,0x44a,0x44a,0x4eb,0x4eb,0x4eb,0x4eb,0x4eb,0x52b,0x52b,0x52b,0x4eb,0x44a,0x44a,0x52b,0x4eb,0x4eb,0x4eb,0x4eb,0x4eb,0x52b,0x52b,0x52b,0x409,0x44a,0x44a,0x44a,0x409,0x409,0x409,0x409,0x409,0x44a,0x44a,0x44a,0x409,0x52b,0x52b,0x52b,0x4eb,0x4eb,0x4eb,0x4eb,0x4eb,0x52b,0x44a,0x44a,0x4eb,0x52b,0x52b,0x52b,0x4eb,0x4eb,0x4eb,0x4eb,0x4eb,0x44a,0x44a,0x52b,0x4eb,0x52b,0x52b,0x52b,0x4eb,0x4eb,0x4eb,0x4eb,0x409,0x44a,0x52b,0x52b,0x4eb,0x52b,0x52b,0x52b,0x4eb,0x4eb,0x4eb,0x409,0x409,0x44a,0x44a,0x409,0x4eb,0x4eb,0x4eb,0x4eb,0x4eb,0x4eb,0x52b,0x52b,0x52b,0x44a,0x44a,0x4eb,0x4eb,0x4eb,0x4eb,0x4eb,0x4eb,0x4eb,0x52b,0x52b,0x44a,0x44a,0x44a,0x409,0x409,0x409,0x409,0x409,0x409,0x409,0x44a,0x44a,0x44a,0x52b,0x52b,0x4eb,0x4eb,0x4eb,0x4eb,0x4eb,0x4eb,0x4eb,0x44a,0x44a,0x52b,0x52b,0x52b,0x4eb,0x4eb,0x4eb,0x4eb,0x4eb,0x4eb,0x409,0x44a,0x52b,0x52b,0x52b,0x52b,0x4eb,0x4eb,0x4eb,0x4eb,0x4eb,0x409,0x409,0x52b,0x52b,0x52b,0x52b,0x52b,0x4eb,0x4eb,0x4eb,0x4eb,0x409,0x409,0x409,0x409,0x409,0x4eb,0x4eb,0x52b,0x4eb,0x4eb,0x4eb,0x4eb,0x52b,0x52b,0x44a,0x409,0x4eb,0x4eb,0x52b,0x4eb,0x52b,0x4eb,0x4eb,0x4eb,0x52b,0x44a,0x44a,0x409,0x409,0x409,0x409,0x44a,0x409,0x409,0x409,0x409,0x44a,0x44a,0x52b,0x4eb,0x4eb,0x4eb,0x52b,0x4eb,0x52b,0x4eb,0x4eb,0x409,0x44a,0x52b,0x52b,0x4eb,0x4eb,0x4eb,0x4eb,0x52b,0x4eb,0x4eb,0x409,0x409,0x52b,0x52b,0x52b,0x4eb,0x4eb,0x4eb,0x52b,0x4eb,0x52b,0x409,0x409,0x4eb,0x52b,0x52b,0x52b,0x4eb,0x4eb,0x4eb,0x4eb,0x52b,0x409,0x409,0x409,0x409,0x409,0x4eb,0x52b,0x52b,0x52b,0x4eb,0x4eb,0x4eb,0x4eb,0x52b,0x409,0x409,0x4eb,0x52b,0x52b,0x52b,0x52b,0x52b,0x4eb,0x4eb,0x4eb,0x44a,0x409,0x409,0x409,0x409,0x44a,0x44a,0x44a,0x409,0x409,0x409,0x409,0x44a,0x4eb,0x4eb,0x4eb,0x52b,0x52b,0x52b,0x52b,0x52b,0x4eb,0x409,0x409,0x52b,0x4eb,0x4eb,0x4eb,0x4eb,0x52b,0x52b,0x52b,0x4eb,0x409,0x409,0x4eb,0x52b,0x4eb,0x4eb,0x4eb,0x52b,0x52b,0x52b,0x52b,0x44a,0x409,0x4eb,0x4eb,0x52b,0x4eb,0x4eb,0x4eb,0x4eb,0x52b,0x52b,0x44a,0x409,0x409,0x409,0x409,0x44a,0x52b,0x52b,0x52b,0x52b,0x4eb,0x4eb,0x4eb,0x409,0x409,0x409,0x409,0x52b,0x52b,0x52b,0x52b,0x52b,0x4eb,0x4eb,0x409,0x409,0x409,0x409,0x409,0x44a,0x44a,0x44a,0x44a,0x44a,0x409,0x409,0x409,0x409,0x409,0x4eb,0x4eb,0x52b,0x52b,0x52b,0x52b,0x52b,0x409,0x409,0x409,0x409,0x4eb,0x4eb,0x4eb,0x52b,0x52b,0x52b,0x52b,0x44a,0x409,0x409,0x409,0x4eb,0x4eb,0x4eb,0x4eb,0x52b,0x52b,0x52b,0x44a,0x44a,0x409,0x409,0x4eb,0x4eb,0x4eb,0x4eb,0x4eb,0x52b,0x52b,0x44a,0x44a,0x44a,0x409,0x409,0x409,0x409,0x44a,0x44a,0x44a,0x409,0x409,0x409,0x409,0x44a,0x409,0x409,0x409,0x409,0x44a,0x44a,0x44a,0x409,0x409,0x409,0x409,0x44a,0x409,0x409,0x409,0x409,0x44a,0x44a,0x44a,0x409,0x409,0x409,0x409,0x44a,0x409,0x409,0x409,0x409,0x44a,0x44a,0x44a,0x409,0x409,0x409,0x409,0x44a,0x409,0x409,0x409,0x409,0x44a,0x44a,0x44a,0x409,0x409,0x409,0x409,0x44a,0x409,0x409,0x409,0x409,0x44a,0x44a,0x44a,0x409,0x409,0x409,0x409,0x44a,0x409,0x409,0x409,0x409,0x44a,0x44a,0x44a,0x409,0x409,0x409,0x409,0x409,0x409,0x44a,0x409,0x409,0x409,0x409,0x44a,0x44a,0x44a,0x409,0x409,0x409,0x409,0x44a,0x409,0x409,0x409,0x409,0x44a,0x44a,0x44a,0x409,0x409,0x409,0x409,0x44a,0x409,0x409,0x409,0x409,0x44a,0x44a,0x44a,0x409,0x409,0x409,0x409,0x44a,0x409,0x409,0x409,0x409,0x44a,0x44a,0x44a,0x409,0x409,0x409,0x409,0x44a,0x409,0x409,0x409,0x409,0x44a,0x44a,0x44a,0x409,0x409,0x409,0x409,0x44a,0x409,0x409,0x409,0x409,0x44a,0x44a,0x44a,0x409,0x409,0x409,0x409,0x44a,0x409,0x409,0x409,0x44a,0x409,0x409,0x4eb,0x4eb,0x4eb,0x4eb,0x4eb,0x52b,0x52b,0x44a,0x44a,0x44a,0x409,0x4eb,0x4eb,0x4eb,0x4eb,0x4eb,0x4eb,0x52b,0x44a,0x44a,0x44a,0x44a,0x4eb,0x4eb,0x4eb,0x4eb,0x4eb,0x4eb,0x4eb,0x44a,0x44a,0x44a,0x44a,0x52b,0x4eb,0x4eb,0x4eb,0x4eb,0x4eb,0x4eb,0x409,0x44a,0x44a,0x44a,0x52b,0x52b,0x4eb,0x4eb,0x4eb,0x4eb,0x4eb,0x409,0x409,0x44a,0x44a,0x52b,0x52b,0x52b,0x4eb,0x4eb,0x4eb,0x4eb,0x409,0x409,0x409,0x44a,0x52b,0x52b,0x52b,0x52b,0x4eb,0x4eb,0x4eb,0x409,0x409,0x409,0x409,0x44a,0x44a,0x4eb,0x4eb,0x4eb,0x4eb,0x4eb,0x52b,0x52b,0x52b,0x4eb,0x44a,0x44a,0x52b,0x4eb,0x4eb,0x4eb,0x4eb,0x4eb,0x52b,0x52b,0x4eb,0x409,0x409,0x52b,0x52b,0x4eb,0x4eb,0x4eb,0x4eb,0x4eb,0x52b,0x52b,0x44a,0x409,0x52b,0x52b,0x52b,0x4eb,0x4eb,0x4eb,0x4eb,0x4eb,0x52b,0x44a,0x409,0x4eb,0x4eb,0x52b,0x52b,0x4eb,0x4eb,0x4eb,0x4eb,0x4eb,0x44a,0x44a,0x52b,0x4eb,0x52b,0x52b,0x52b,0x4eb,0x4eb,0x4eb,0x4eb,0x409,0x44a,0x52b,0x4eb,0x4eb,0x4eb,0x52b,0x52b,0x4eb,0x4eb,0x4eb,0x409,0x409,0x44a,0x409,0x44a,0x52b,0x4eb,0x4eb,0x4eb,0x52b,0x52b,0x52b,0x4eb,0x4eb,0x409,0x44a,0x52b,0x52b,0x4eb,0x4eb,0x4eb,0x52b,0x52b,0x4eb,0x52b,0x409,0x44a,0x4eb,0x52b,0x52b,0x4eb,0x4eb,0x4eb,0x52b,0x52b,0x52b,0x409,0x409,0x4eb,0x52b,0x52b,0x52b,0x4eb,0x4eb,0x4eb,0x52b,0x52b,0x409,0x44a,0x4eb,0x52b,0x4eb,0x52b,0x52b,0x4eb,0x4eb,0x4eb,0x52b,0x44a,0x44a,0x4eb,0x4eb,0x4eb,0x52b,0x52b,0x52b,0x4eb,0x4eb,0x4eb,0x44a,0x44a,0x4eb,0x52b,0x4eb,0x52b,0x4eb,0x52b,0x52b,0x4eb,0x4eb,0x409,0x44a,0x44a,0x409,0x44a,0x52b,0x52b,0x4eb,0x52b,0x52b,0x52b,0x4eb,0x4eb,0x4eb,0x409,0x409,0x52b,0x52b,0x52b,0x4eb,0x52b,0x52b,0x52b,0x4eb,0x4eb,0x409,0x409,0x4eb,0x52b,0x52b,0x52b,0x4eb,0x52b,0x52b,0x52b,0x4eb,0x409,0x409,0x4eb,0x4eb,0x52b,0x52b,0x52b,0x4eb,0x52b,0x52b,0x52b,0x409,0x409,0x4eb,0x4eb,0x4eb,0x52b,0x52b,0x52b,0x4eb,0x52b,0x52b,0x44a,0x409,0x4eb,0x4eb,0x4eb,0x4eb,0x52b,0x52b,0x52b,0x4eb,0x52b,0x44a,0x44a,0x4eb,0x4eb,0x4eb,0x4eb,0x4eb,0x52b,0x52b,0x52b,0x4eb,0x44a,0x44a,0x44a,0x409,0x44a,0x52b,0x4eb,0x4eb,0x4eb,0x52b,0x52b,0x4eb,0x4eb,0x4eb,0x409,0x409,0x52b,0x52b,0x4eb,0x4eb,0x4eb,0x52b,0x52b,0x4eb,0x52b,0x409,0x44a,0x4eb,0x52b,0x52b,0x4eb,0x4eb,0x4eb,0x52b,0x52b,0x4eb,0x409,0x409,0x4eb,0x4eb,0x52b,0x52b,0x4eb,0x4eb,0x4eb,0x52b,0x52b,0x409,0x44a,0x4eb,0x52b,0x4eb,0x52b,0x52b,0x4eb,0x4eb,0x4eb,0x52b,0x44a,0x409,0x4eb,0x4eb,0x4eb,0x4eb,0x52b,0x52b,0x4eb,0x4eb,0x4eb,0x44a,0x44a,0x4eb,0x52b,0x4eb,0x52b,0x4eb,0x52b,0x52b,0x4eb,0x4eb,0x409,0x44a,0x44a,0x44a,0x44a,0x4eb,0x4eb,0x4eb,0x4eb,0x4eb,0x52b,0x52b,0x52b,0x4eb,0x44a,0x44a,0x52b,0x4eb,0x4eb,0x4eb,0x4eb,0x4eb,0x52b,0x52b,0x52b,0x409,0x44a,0x52b,0x52b,0x4eb,0x4eb,0x4eb,0x4eb,0x4eb,0x52b,0x52b,0x44a,0x409,0x52b,0x52b,0x52b,0x4eb,0x4eb,0x4eb,0x4eb,0x4eb,0x52b,0x44a,0x44a,0x4eb,0x52b,0x52b,0x52b,0x4eb,0x4eb,0x4eb,0x4eb,0x4eb,0x44a,0x44a,0x52b,0x4eb,0x52b,0x52b,0x52b,0x4eb,0x4eb,0x4eb,0x4eb,0x409,0x44a,0x52b,0x52b,0x4eb,0x52b,0x52b,0x52b,0x4eb,0x4eb,0x4eb,0x409,0x409,0x44a,0x44a,0x409,0x4eb,0x4eb,0x4eb,0x4eb,0x4eb,0x4eb,0x52b,0x52b,0x52b,0x44a,0x44a,0x4eb,0x4eb,0x4eb,0x4eb,0x4eb,0x4eb,0x4eb,0x52b,0x52b,0x44a,0x44a,0x52b,0x4eb,0x4eb,0x4eb,0x4eb,0x4eb,0x4eb,0x4eb,0x52b,0x44a,0x44a,0x52b,0x52b,0x4eb,0x4eb,0x4eb,0x4eb,0x4eb,0x4eb,0x4eb,0x44a,0x44a,0x52b,0x52b,0x52b,0x4eb,0x4eb,0x4eb,0x4eb,0x4eb,0x4eb,0x409,0x44a,0x52b,0x52b,0x52b,0x52b,0x4eb,0x4eb,0x4eb,0x4eb,0x4eb,0x409,0x409,0x52b,0x52b,0x52b,0x52b,0x52b,0x4eb,0x4eb,0x4eb,0x4eb,0x409,0x409,0x409,0x409,0x409,0x4eb,0x52b,0x4eb,0x52b,0x4eb,0x4eb,0x4eb,0x52b,0x52b,0x44a,0x409,0x4eb,0x4eb,0x4eb,0x52b,0x4eb,0x4eb,0x4eb,0x4eb,0x52b,0x44a,0x44a,0x4eb,0x4eb,0x4eb,0x52b,0x4eb,0x52b,0x4eb,0x4eb,0x4eb,0x44a,0x44a,0x52b,0x4eb,0x4eb,0x4eb,0x4eb,0x52b,0x4eb,0x4eb,0x4eb,0x409,0x44a,0x52b,0x52b,0x4eb,0x4eb,0x4eb,0x52b,0x4eb,0x52b,0x4eb,0x409,0x409,0x52b,0x52b,0x52b,0x4eb,0x4eb,0x4eb,0x4eb,0x52b,0x4eb,0x409,0x409,0x4eb,0x52b,0x52b,0x52b,0x4eb,0x4eb,0x4eb,0x52b,0x4eb,0x44a,0x409,0x409,0x409,0x409,0x52b,0x52b,0x52b,0x52b,0x52b,0x4eb,0x4eb,0x4eb,0x52b,0x409,0x409,0x4eb,0x4eb,0x52b,0x52b,0x52b,0x4eb,0x4eb,0x4eb,0x4eb,0x44a,0x409,0x4eb,0x4eb,0x52b,0x52b,0x52b,0x52b,0x52b,0x4eb,0x4eb,0x409,0x44a,0x4eb,0x4eb,0x4eb,0x4eb,0x52b,0x52b,0x52b,0x4eb,0x4eb,0x409,0x409,0x52b,0x4eb,0x4eb,0x4eb,0x52b,0x52b,0x52b,0x52b,0x52b,0x409,0x409,0x4eb,0x52b,0x4eb,0x4eb,0x4eb,0x4eb,0x52b,0x52b,0x52b,0x409,0x409,0x4eb,0x4eb,0x52b,0x4eb,0x4eb,0x4eb,0x52b,0x52b,0x52b,0x44a,0x44a,0x409,0x409,0x409,0x52b,0x52b,0x52b,0x52b,0x52b,0x4eb,0x4eb,0x4eb,0x4eb,0x409,0x409,0x4eb,0x52b,0x52b,0x52b,0x52b,0x52b,0x4eb,0x4eb,0x4eb,0x409,0x409,0x4eb,0x4eb,0x52b,0x52b,0x52b,0x52b,0x52b,0x4eb,0x4eb,0x409,0x409,0x4eb,0x4eb,0x4eb,0x52b,0x52b,0x52b,0x52b,0x52b,0x4eb,0x409,0x409,0x4eb,0x4eb,0x4eb,0x4eb,0x52b,0x52b,0x52b,0x52b,0x52b,0x409,0x409,0x4eb,0x4eb,0x4eb,0x4eb,0x4eb,0x52b,0x52b,0x52b,0x52b,0x44a,0x409,0x4eb,0x4eb,0x4eb,0x4eb,0x4eb,0x4eb,0x52b,0x52b,0x52b,0x44a,0x44a,0x409,0x409,0x409,0x4eb,0x52b,0x52b,0x52b,0x4eb,0x4eb,0x4eb,0x4eb,0x52b,0x409,0x409,0x4eb,0x4eb,0x52b,0x52b,0x52b,0x4eb,0x4eb,0x4eb,0x4eb,0x44a,0x409,0x4eb,0x4eb,0x4eb,0x52b,0x52b,0x52b,0x4eb,0x4eb,0x4eb,0x409,0x44a,0x4eb,0x4eb,0x4eb,0x4eb,0x52b,0x52b,0x52b,0x4eb,0x4eb,0x409,0x409,0x52b,0x4eb,0x4eb,0x4eb,0x4eb,0x52b,0x52b,0x52b,0x4eb,0x409,0x409,0x4eb,0x52b,0x4eb,0x4eb,0x4eb,0x4eb,0x52b,0x52b,0x52b,0x409,0x409,0x4eb,0x4eb,0x52b,0x4eb,0x4eb,0x4eb,0x4eb,0x52b,0x52b,0x44a,0x409,0x409,0x409,0x409,0x4eb,0x4eb,0x52b,0x4eb,0x4eb,0x4eb,0x4eb,0x52b,0x52b,0x44a,0x409,0x4eb,0x4eb,0x4eb,0x52b,0x4eb,0x4eb,0x4eb,0x4eb,0x52b,0x44a,0x44a,0x4eb,0x4eb,0x4eb,0x4eb,0x52b,0x4eb,0x4eb,0x4eb,0x4eb,0x44a,0x44a,0x52b,0x4eb,0x4eb,0x4eb,0x4eb,0x52b,0x4eb,0x4eb,0x4eb,0x409,0x44a,0x52b,0x52b,0x4eb,0x4eb,0x4eb,0x4eb,0x52b,0x4eb,0x4eb,0x409,0x409,0x52b,0x52b,0x52b,0x4eb,0x4eb,0x4eb,0x4eb,0x52b,0x4eb,0x409,0x409,0x4eb,0x52b,0x52b,0x52b,0x4eb,0x4eb,0x4eb,0x4eb,0x52b,0x409,0x409,0x409,0x44a,0x409,0x4eb,0x4eb,0x4eb,0x4eb,0x4eb,0x4eb,0x52b,0x52b,0x52b,0x44a,0x44a,0x4eb,0x4eb,0x4eb,0x4eb,0x4eb,0x4eb,0x4eb,0x52b,0x52b,0x44a,0x44a,0x52b,0x4eb,0x4eb,0x4eb,0x4eb,0x4eb,0x4eb,0x4eb,0x52b,0x44a,0x44a,0x52b,0x52b,0x4eb,0x4eb,0x4eb,0x4eb,0x4eb,0x4eb,0x4eb,0x44a,0x44a,0x52b,0x52b,0x52b,0x4eb,0x4eb,0x4eb,0x4eb,0x4eb,0x4eb,0x409,0x44a,0x52b,0x52b,0x52b,0x52b,0x4eb,0x4eb,0x4eb,0x4eb,0x4eb,0x409,0x409,0x52b,0x52b,0x52b,0x52b,0x52b,0x4eb,0x4eb,0x4eb,0x4eb,0x409,0x409,0x409,0x44a,0x44a,0x409,0x4eb,0x4eb,0x4eb,0x4eb,0x52b,0x52b,0x4eb,0x409,0x409,0x44a,0x44a,0x4eb,0x4eb,0x4eb,0x4eb,0x4eb,0x52b,0x52b,0x44a,0x409,0x44a,0x44a,0x52b,0x4eb,0x4eb,0x4eb,0x4eb,0x4eb,0x52b,0x44a,0x409,0x409,0x409,0x52b,0x52b,0x4eb,0x4eb,0x4eb,0x4eb,0x4eb,0x44a,0x44a,0x44a,0x409,0x52b,0x52b,0x52b,0x4eb,0x4eb,0x4eb,0x4eb,0x409,0x44a,0x44a,0x409,0x4eb,0x4eb,0x52b,0x52b,0x4eb,0x4eb,0x4eb,0x409,0x409,0x44a,0x44a,0x52b,0x4eb,0x52b,0x52b,0x52b,0x4eb,0x4eb,0x409,0x409,0x409,0x44a,0x44a,0x44a,0x44a,0x409,0x409,0x409,0x44a,0x44a,0x409,0x44a,0x409,0x44a,0x409,0x44a,0x44a,0x409,0x409,0x409,0x44a,0x44a,0x44a,0x409,0x409,0x409,0x44a,0x44a,0x44a,0x409,0x409,0x409,0x44a,0x44a,0x409,0x44a,0x409,0x44a,0x409,0x44a,0x44a,0x409,0x409,0x409,0x44a,0x44a,0x44a,0x409,0x409,0x409,0x44a,0x44a,0x44a,0x409,0x409,0x409,0x44a,0x44a,0x409,0x44a,0x409,0x44a,0x409,0x44a,0x44a,0x409,0x409,0x409,0x44a,0x44a,0x44a,0x409,0x409,0x409,0x44a,0x44a,0x44a,0x409,0x409,0x409,0x44a,0x44a,0x409,0x44a,0x44a,0x44a,0x409,0x44a,0x44a,0x44a,0x409,0x409,0x409,0x409,0x409,0x44a,0x44a,0x44a,0x409,0x44a,0x44a,0x44a,0x409,0x409,0x409,0x409,0x409,0x44a,0x44a,0x44a,0x409,0x44a,0x44a,0x44a,0x409,0x409,0x409,0x409,0x409,0x44a,0x44a,0x44a,0x409,0x44a,0x44a,0x44a,0x409,0x409,0x409,0x409,0x409,0x44a,0x44a,0x44a,0x409,0x44a,0x44a,0x44a,0x409,0x409,0x409,0x409,0x409,0x44a,0x44a,0x44a,0x409,0x44a,0x44a,0x44a,0x409,0x409,0x409,0x409,0x409,0x44a,0x44a,0x44a,0x409,0x44a,0x44a,0x44a,0x409,0x44a,0x44a,0x409,0x409,0x409,0x44a,0x44a,0x409,0x44a,0x409,0x44a,0x409,0x44a,0x44a,0x409,0x409,0x409,0x44a,0x44a,0x409,0x409,0x409,0x409,0x409,0x44a,0x44a,0x409,0x409,0x409,0x44a,0x44a,0x409,0x44a,0x409,0x44a,0x409,0x44a,0x44a,0x409,0x409,0x409,0x44a,0x44a,0x409,0x409,0x409,0x409,0x409,0x44a,0x44a,0x409,0x409,0x409,0x44a,0x44a,0x409,0x44a,0x409,0x44a,0x409,0x44a,0x44a,0x409,0x409,0x409,0x44a,0x44a,0x409,0x409,0x409,0x409,0x409,0x44a,0x44a,0x409,0x409,0x409,0x44a,0x44a,0x44a,0x44a,0x409,0x409,0x409,0x409,0x409,0x44a,0x44a,0x44a,0x409,0x44a,0x44a,0x44a,0x409,0x409,0x409,0x409,0x409,0x44a,0x44a,0x44a,0x409,0x44a,0x44a,0x44a,0x409,0x409,0x409,0x409,0x409,0x44a,0x44a,0x44a,0x409,0x44a,0x44a,0x44a,0x409,0x409,0x409,0x409,0x409,0x44a,0x44a,0x44a,0x409,0x44a,0x44a,0x44a,0x409,0x409,0x409,0x409,0x409,0x44a,0x44a,0x44a,0x409,0x44a,0x44a,0x44a,0x409,0x409,0x409,0x409,0x409,0x44a,0x44a,0x44a,0x409,0x44a,0x44a,0x44a,0x409,0x409,0x409,0x409,0x409,0x44a,0x44a,0x409,0x409,0x409,0x409,0x409,0x409,0x409,0x44a,0x44a,0x44a,0x44a,0x44a,0x409,0x409,0x409,0x409,0x409,0x409,0x409,0x44a,0x44a,0x44a,0x44a,0x44a,0x409,0x409,0x409,0x409,0x409,0x409,0x409,0x44a,0x44a,0x44a,0x44a,0x44a,0x409,0x409,0x409,0x409,0x409,0x409,0x409,0x44a,0x44a,0x44a,0x44a,0x44a,0x409,0x409,0x409,0x409,0x409,0x409,0x409,0x44a,0x44a,0x44a,0x44a,0x44a,0x409,0x409,0x409,0x409,0x409,0x409,0x409,0x44a,0x44a,0x44a,0x44a,0x44a,0x409,0x409,0x409,0x409,0x409,0x409,0x409,0x409,0x409,0x409,0x409,0x44a,0x409,0x409,0x409,0x409,0x44a,0x44a,0x44a,0x409,0x409,0x409,0x44a,0x409,0x44a,0x409,0x409,0x409,0x44a,0x44a,0x44a,0x409,0x409,0x409,0x409,0x44a,0x409,0x409,0x409,0x409,0x44a,0x44a,0x44a,0x409,0x409,0x409,0x44a,0x409,0x44a,0x409,0x409,0x409,0x44a,0x44a,0x44a,0x409,0x409,0x409,0x409,0x44a,0x409,0x409,0x409,0x409,0x44a,0x44a,0x44a,0x409,0x409,0x409,0x44a,0x409,0x44a,0x409,0x409,0x409,0x44a,0x44a,0x44a,0x409,0x409,0x409,0x409,0x44a,0x409,0x409,0x409,0x409,0x409,0x409,0x44a,0x44a,0x44a,0x409,0x409,0x409,0x409,0x44a,0x409,0x409,0x409,0x44a,0x44a,0x44a,0x44a,0x44a,0x409,0x409,0x409,0x44a,0x409,0x409,0x409,0x409,0x44a,0x44a,0x44a,0x409,0x409,0x409,0x409,0x44a,0x409,0x409,0x409,0x44a,0x44a,0x44a,0x44a,0x44a,0x409,0x409,0x409,0x44a,0x409,0x409,0x409,0x409,0x44a,0x44a,0x44a,0x409,0x409,0x409,0x409,0x44a,0x409,0x409,0x409,0x44a,0x44a,0x44a,0x44a,0x44a,0x409,0x409,0x409,0x44a,0x409,0x409,0x409,0x409,0x44a,0x44a,0x44a,0x409,0x409,0x409,0x409,0x44a,0x44a,0x44a,0x44a,0x44a,0x409,0x409,0x409,0x409,0x409,0x409,0x409,0x44a,0x44a,0x44a,0x44a,0x44a,0x409,0x409,0x409,0x409,0x409,0x409,0x409,0x44a,0x44a,0x44a,0x44a,0x44a,0x409,0x409,0x409,0x409,0x409,0x409,0x409,0x44a,0x44a,0x44a,0x44a,0x44a,0x409,0x409,0x409,0x409,0x409,0x409,0x409,0x44a,0x44a,0x44a,0x44a,0x44a,0x409,0x409,0x409,0x409,0x409,0x409,0x409,0x44a,0x44a,0x44a,0x44a,0x44a,0x409,0x409,0x409,0x409,0x409,0x409,0x409,0x44a,0x44a,0x44a,0x44a,0x44a,0x409,0x409,0x409,0x409,0x44a,0x44a,0x44a,0x409,0x409,0x409,0x409,0x44a,0x409,0x409,0x409,0x409,0x44a,0x44a,0x44a,0x409,0x409,0x409,0x409,0x44a,0x409,0x409,0x409,0x409,0x44a,0x44a,0x44a,0x409,0x409,0x409,0x409,0x44a,0x409,0x409,0x409,0x409,0x44a,0x44a,0x44a,0x409,0x409,0x409,0x409,0x44a,0x409,0x409,0x409,0x409,0x44a,0x44a,0x44a,0x409,0x409,0x409,0x409,0x44a,0x409,0x409,0x409,0x409,0x44a,0x44a,0x44a,0x409,0x409,0x409,0x409,0x44a,0x409,0x409,0x409,0x409,0x44a,0x44a,0x44a,0x409,0x409,0x409,0x409,0x409,0x409,0x44a,0x409,0x409,0x409,0x409,0x44a,0x44a,0x44a,0x409,0x409,0x409,0x409,0x44a,0x409,0x409,0x409,0x409,0x44a,0x44a,0x44a,0x409,0x409,0x409,0x409,0x44a,0x409,0x409,0x409,0x409,0x44a,0x44a,0x44a,0x409,0x409,0x409,0x409,0x44a,0x409,0x409,0x409,0x409,0x44a,0x44a,0x44a,0x409,0x409,0x409,0x409,0x44a,0x409,0x409,0x409,0x409,0x44a,0x44a,0x44a,0x409,0x409,0x409,0x409,0x44a,0x409,0x409,0x409,0x409,0x44a,0x44a,0x44a,0x409,0x409,0x409,0x409,0x44a,0x409,0x409,0x409,0x44a,0x409,0x409,0x409,0x409,0x409,0x409,0x409,0x44a,0x44a,0x44a,0x44a,0x44a,0x409,0x409,0x409,0x409,0x409,0x409,0x409,0x44a,0x44a,0x44a,0x44a,0x44a,0x409,0x409,0x409,0x409,0x409,0x409,0x409,0x44a,0x44a,0x44a,0x44a,0x44a,0x409,0x409,0x409,0x409,0x409,0x409,0x409,0x44a,0x44a,0x44a,0x44a,0x44a,0x409,0x409,0x409,0x409,0x409,0x409,0x409,0x44a,0x44a,0x44a,0x44a,0x44a,0x409,0x409,0x409,0x409,0x409,0x409,0x409,0x44a,0x44a,0x44a,0x44a,0x44a,0x409,0x409,0x409,0x409,0x409,0x409,0x409,0x44a,0x44a,0x409,0x409,0x409,0x409,0x409,0x44a,0x44a,0x44a,0x409,0x44a,0x44a,0x44a,0x409,0x409,0x409,0x409,0x409,0x44a,0x44a,0x409,0x409,0x409,0x44a,0x44a,0x409,0x409,0x409,0x409,0x409,0x44a,0x44a,0x44a,0x409,0x44a,0x44a,0x44a,0x409,0x409,0x409,0x409,0x409,0x44a,0x44a,0x409,0x409,0x409,0x44a,0x44a,0x409,0x409,0x409,0x409,0x409,0x44a,0x44a,0x44a,0x409,0x44a,0x44a,0x44a,0x409,0x409,0x409,0x409,0x409,0x44a,0x44a,0x409,0x409,0x409,0x44a,0x44a,0x409,0x409,0x409,0x409,0x409,0x44a,0x409,0x44a,0x44a,0x409,0x409,0x409,0x44a,0x44a,0x44a,0x409,0x409,0x409,0x44a,0x44a,0x44a,0x409,0x409,0x409,0x44a,0x44a,0x409,0x44a,0x409,0x44a,0x409,0x44a,0x44a,0x409,0x409,0x409,0x44a,0x44a,0x44a,0x409,0x409,0x409,0x44a,0x44a,0x44a,0x409,0x409,0x409,0x44a,0x44a,0x409,0x44a,0x409,0x44a,0x409,0x44a,0x44a,0x409,0x409,0x409,0x44a,0x44a,0x44a,0x409,0x409,0x409,0x44a,0x44a,0x44a,0x409,0x409,0x409,0x44a,0x44a,0x409,0x44a,0x409,0x44a,0x409,0x44a,0x44a,0x409,0x409,0x409,0x44a,0x44a,0x409,0x44a,0x44a,0x44a,0x409,0x44a,0x44a,0x44a,0x409,0x409,0x409,0x409,0x409,0x44a,0x44a,0x44a,0x409,0x44a,0x44a,0x44a,0x409,0x409,0x409,0x409,0x409,0x44a,0x44a,0x44a,0x409,0x44a,0x44a,0x44a,0x409,0x409,0x409,0x409,0x409,0x44a,0x44a,0x44a,0x409,0x44a,0x44a,0x44a,0x409,0x409,0x409,0x409,0x409,0x44a,0x44a,0x44a,0x409,0x44a,0x44a,0x44a,0x409,0x409,0x409,0x409,0x409,0x44a,0x44a,0x44a,0x409,0x44a,0x44a,0x44a,0x409,0x409,0x409,0x409,0x409,0x44a,0x44a,0x44a,0x409,0x44a,0x44a,0x44a,0x409,0x44a,0x44a,0x409,0x409,0x409,0x44a,0x44a,0x409,0x409,0x409,0x409,0x409,0x44a,0x44a,0x409,0x409,0x409,0x44a,0x44a,0x409,0x44a,0x409,0x44a,0x409,0x44a,0x44a,0x409,0x409,0x409,0x44a,0x44a,0x409,0x409,0x409,0x409,0x409,0x44a,0x44a,0x409,0x409,0x409,0x44a,0x44a,0x409,0x44a,0x409,0x44a,0x409,0x44a,0x44a,0x409,0x409,0x409,0x44a,0x44a,0x409,0x409,0x409,0x409,0x409,0x44a,0x44a,0x409,0x409,0x409,0x44a,0x44a,0x409,0x44a,0x409,0x44a,0x409,0x44a,0x44a,0x409,0x409,0x409,0x44a,0x44a,0x44a,0x44a,0x409,0x409,0x409,0x409,0x409,0x44a,0x44a,0x44a,0x409,0x44a,0x44a,0x44a,0x409,0x409,0x409,0x409,0x409,0x44a,0x44a,0x44a,0x409,0x44a,0x44a,0x44a,0x409,0x409,0x409,0x409,0x409,0x44a,0x44a,0x44a,0x409,0x44a,0x44a,0x44a,0x409,0x409,0x409,0x409,0x409,0x44a,0x44a,0x44a,0x409,0x44a,0x44a,0x44a,0x409,0x409,0x409,0x409,0x409,0x44a,0x44a,0x44a,0x409,0x44a,0x44a,0x44a,0x409,0x409,0x409,0x409,0x409,0x44a,0x44a,0x44a,0x409,0x44a,0x44a,0x44a,0x409,0x409,0x409,0x409,0x409,0x44a,0x44a,0x409,0x409,0x409,0x409,0x409,0x409,0x409,0x44a,0x44a,0x44a,0x44a,0x44a,0x409,0x409,0x409,0x409,0x409,0x409,0x409,0x44a,0x44a,0x44a,0x44a,0x44a,0x409,0x409,0x409,0x409,0x409,0x409,0x409,0x44a,0x44a,0x44a,0x44a,0x44a,0x409,0x409,0x409,0x409,0x409,0x409,0x409,0x44a,0x44a,0x44a,0x44a,0x44a,0x409,0x409,0x409,0x409,0x409,0x409,0x409,0x44a,0x44a,0x44a,0x44a,0x44a,0x409,0x409,0x409,0x409,0x409,0x409,0x409,0x44a,0x44a,0x44a,0x44a,0x44a,0x409,0x409,0x409,0x409,0x409,0x409,0x409,0x409,0x409,0x409,0x44a,0x409,0x44a,0x409,0x409,0x409,0x44a,0x44a,0x44a,0x409,0x409,0x409,0x409,0x44a,0x409,0x409,0x409,0x409,0x44a,0x44a,0x44a,0x409,0x409,0x409,0x44a,0x409,0x44a,0x409,0x409,0x409,0x44a,0x44a,0x44a,0x409,0x409,0x409,0x409,0x44a,0x409,0x409,0x409,0x409,0x44a,0x44a,0x44a,0x409,0x409,0x409,0x44a,0x409,0x44a,0x409,0x409,0x409,0x44a,0x44a,0x44a,0x409,0x409,0x409,0x409,0x44a,0x409,0x409,0x409,0x409,0x44a,0x44a,0x44a,0x409,0x409,0x409,0x44a,0x409,0x44a,0x409,0x409,0x409,0x409,0x44a,0x44a,0x44a,0x44a,0x44a,0x409,0x409,0x409,0x44a,0x409,0x409,0x409,0x409,0x44a,0x44a,0x44a,0x409,0x409,0x409,0x409,0x44a,0x409,0x409,0x409,0x44a,0x44a,0x44a,0x44a,0x44a,0x409,0x409,0x409,0x44a,0x409,0x409,0x409,0x409,0x44a,0x44a,0x44a,0x409,0x409,0x409,0x409,0x44a,0x409,0x409,0x409,0x44a,0x44a,0x44a,0x44a,0x44a,0x409,0x409,0x409,0x44a,0x409,0x409,0x409,0x409,0x44a,0x44a,0x44a,0x409,0x409,0x409,0x409,0x44a,0x409,0x409,0x409,0x44a,0x44a,0x44a,0x44a,0x44a,0x409,0x409,0x409,0x44a,0x44a,0x44a,0x44a,0x44a,0x409,0x409,0x409,0x409,0x409,0x409,0x409,0x44a,0x44a,0x44a,0x44a,0x44a,0x409,0x409,0x409,0x409,0x409,0x409,0x409,0x44a,0x44a,0x44a,0x44a,0x44a,0x409,0x409,0x409,0x409,0x409,0x409,0x409,0x44a,0x44a,0x44a,0x44a,0x44a,0x409,0x409,0x409,0x409,0x409,0x409,0x409,0x44a,0x44a,0x44a,0x44a,0x44a,0x409,0x409,0x409,0x409,0x409,0x409,0x409,0x44a,0x44a,0x44a,0x44a,0x44a,0x409,0x409,0x409,0x409,0x409,0x409,0x409,0x44a,0x44a,0x44a,0x44a,0x44a,0x409,0x409,0x409,0x409,0x44a,0x44a,0x44a,0x409,0x409,0x409,0x409,0x44a,0x409,0x409,0x409,0x409,0x44a,0x44a,0x44a,0x409,0x409,0x409,0x409,0x44a,0x409,0x409,0x409,0x409,0x44a,0x44a,0x44a,0x409,0x409,0x409,0x409,0x44a,0x409,0x409,0x409,0x409,0x44a,0x44a,0x44a,0x409,0x409,0x409,0x409,0x44a,0x409,0x409,0x409,0x409,0x44a,0x44a,0x44a,0x409,0x409,0x409,0x409,0x44a,0x409,0x409,0x409,0x409,0x44a,0x44a,0x44a,0x409,0x409,0x409,0x409,0x44a,0x409,0x409,0x409,0x409,0x44a,0x44a,0x44a,0x409,0x409,0x409,0x409,0x409,0x409,0x44a,0x409,0x409,0x409,0x409,0x44a,0x44a,0x44a,0x409,0x409,0x409,0x409,0x44a,0x409,0x409,0x409,0x409,0x44a,0x44a,0x44a,0x409,0x409,0x409,0x409,0x44a,0x409,0x409,0x409,0x409,0x44a,0x44a,0x44a,0x409,0x409,0x409,0x409,0x44a,0x409,0x409,0x409,0x409,0x44a,0x44a,0x44a,0x409,0x409,0x409,0x409,0x44a,0x409,0x409,0x409,0x409,0x44a,0x44a,0x44a,0x409,0x409,0x409,0x409,0x44a,0x409,0x409,0x409,0x409,0x44a,0x44a,0x44a,0x409,0x409,0x409,0x409,0x44a,0x409,0x409,0x409,0x44a,0x409,0x409,0x409,0x409,0x409,0x409,0x409,0x44a,0x44a,0x44a,0x44a,0x44a,0x409,0x409,0x409,0x409,0x409,0x409,0x409,0x44a,0x44a,0x44a,0x44a,0x44a,0x409,0x409,0x409,0x409,0x409,0x409,0x409,0x44a,0x44a,0x44a,0x44a,0x44a,0x409,0x409,0x409,0x409,0x409,0x409,0x409,0x44a,0x44a,0x44a,0x44a,0x44a,0x409,0x409,0x409,0x409,0x409,0x409,0x409,0x44a,0x44a,0x44a,0x44a,0x44a,0x409,0x409,0x409,0x409,0x409,0x409,0x409,0x44a,0x44a,0x44a,0x44a,0x44a,0x409,0x409,0x409,0x409,0x409,0x409,0x409,0x44a,0x44a,0x409,0x409,0x409,0x409,0x409,0x44a,0x44a,0x409,0x409,0x409,0x44a,0x44a,0x409,0x409,0x409,0x409,0x409,0x44a,0x44a,0x44a,0x409,0x44a,0x44a,0x44a,0x409,0x409,0x409,0x409,0x409,0x44a,0x44a,0x409,0x409,0x409,0x44a,0x44a,0x409,0x409,0x409,0x409,0x409,0x44a,0x44a,0x44a,0x409,0x44a,0x44a,0x44a,0x409,0x409,0x409,0x409,0x409,0x44a,0x44a,0x409,0x409,0x409,0x44a,0x44a,0x409,0x409,0x409,0x409,0x409,0x44a,0x44a,0x44a,0x409,0x44a,0x44a,0x44a,0x409,0x409,0x409,0x409,0x409,0x44a,0x44a,0x44a,0x44a,0x409,0x409,0x409,0x44a,0x44a,0x409,0x44a,0x409,0x44a,0x409,0x44a,0x44a,0x409,0x409,0x409,0x44a,0x44a,0x44a,0x409,0x409,0x409,0x44a,0x44a,0x44a,0x409,0x409,0x409,0x44a,0x44a,0x409,0x44a,0x409,0x44a,0x409,0x44a,0x44a,0x409,0x409,0x409,0x44a,0x44a,0x44a,0x409,0x409,0x409,0x44a,0x44a,0x44a,0x409,0x409,0x409,0x44a,0x44a,0x409,0x44a,0x409,0x44a,0x409,0x44a,0x44a,0x409,0x409,0x409,0x44a,0x44a,0x44a,0x409,0x409,0x409,0x44a,0x44a,0x44a,0x409,0x409,0x409,0x44a,0x44a,0x409,0x44a,0x44a,0x44a,0x409,0x44a,0x44a,0x44a,0x409,0x409,0x409,0x409,0x409,0x44a,0x44a,0x44a,0x409,0x44a,0x44a,0x44a,0x409,0x409,0x409,0x409,0x409,0x44a,0x44a,0x44a,0x409,0x44a,0x44a,0x44a,0x409,0x409,0x409,0x409,0x409,0x44a,0x44a,0x44a,0x409,0x44a,0x44a,0x44a,0x409,0x409,0x409,0x409,0x409,0x44a,0x44a,0x44a,0x409,0x44a,0x44a,0x44a,0x409,0x409,0x409,0x409,0x409,0x44a,0x44a,0x44a,0x409,0x44a,0x44a,0x44a,0x409,0x409,0x409,0x409,0x409,0x44a,0x44a,0x44a,0x409,0x44a,0x44a,0x44a,0x409,0x44a,0x44a,0x409,0x409,0x409,0x44a,0x44a,0x409,0x44a,0x409,0x44a,0x409,0x44a,0x44a,0x409,0x409,0x409,0x44a,0x44a,0x409,0x409,0x409,0x409,0x409,0x44a,0x44a,0x409,0x409,0x409,0x44a,0x44a,0x409,0x44a,0x409,0x44a,0x409,0x44a,0x44a,0x409,0x409,0x409,0x44a,0x44a,0x409,0x409,0x409,0x409,0x409,0x44a,0x44a,0x409,0x409,0x409,0x44a,0x44a,0x409,0x44a,0x409,0x44a,0x409,0x44a,0x44a,0x409,0x409,0x409,0x44a,0x44a,0x409,0x409,0x409,0x409,0x409,0x44a,0x44a,0x409,0x409,0x409,0x44a,0x44a,0x44a,0x44a,0x409,0x409,0x409,0x409,0x409,0x44a,0x44a,0x44a,0x409,0x44a,0x44a,0x44a,0x409,0x409,0x409,0x409,0x409,0x44a,0x44a,0x44a,0x409,0x44a,0x44a,0x44a,0x409,0x409,0x409,0x409,0x409,0x44a,0x44a,0x44a,0x409,0x44a,0x44a,0x44a,0x409,0x409,0x409,0x409,0x409,0x44a,0x44a,0x44a,0x409,0x44a,0x44a,0x44a,0x409,0x409,0x409,0x409,0x409,0x44a,0x44a,0x44a,0x409,0x44a,0x44a,0x44a,0x409,0x409,0x409,0x409,0x409,0x44a,0x44a,0x44a,0x409,0x44a,0x44a,0x44a,0x409,0x409,0x409,0x409,0x409,0x44a,0x44a,0x409,0x409,0x409,0x409,0x409,0x409,0x409,0x44a,0x44a,0x44a,0x44a,0x44a,0x409,0x409,0x409,0x409,0x409,0x409,0x409,0x44a,0x44a,0x44a,0x44a,0x44a,0x409,0x409,0x409,0x409,0x409,0x409,0x409,0x44a,0x44a,0x44a,0x44a,0x44a,0x409,0x409,0x409,0x409,0x409,0x409,0x409,0x44a,0x44a,0x44a,0x44a,0x44a,0x409,0x409,0x409,0x409,0x409,0x409,0x409,0x44a,0x44a,0x44a,0x44a,0x44a,0x409,0x409,0x409,0x409,0x409,0x409,0x409,0x44a,0x44a,0x44a,0x44a,0x44a,0x409,0x409,0x409,0x409,0x409,0x409,0x409,0x409,0x409,0x409,0x409,0x44a,0x409,0x409,0x409,0x409,0x44a,0x44a,0x44a,0x409,0x409,0x409,0x44a,0x409,0x44a,0x409,0x409,0x409,0x44a,0x44a,0x44a,0x409,0x409,0x409,0x409,0x44a,0x409,0x409,0x409,0x409,0x44a,0x44a,0x44a,0x409,0x409,0x409,0x44a,0x409,0x44a,0x409,0x409,0x409,0x44a,0x44a,0x44a,0x409,0x409,0x409,0x409,0x44a,0x409,0x409,0x409,0x409,0x44a,0x44a,0x44a,0x409,0x409,0x409,0x44a,0x409,0x44a,0x409,0x409,0x409,0x44a,0x44a,0x44a,0x409,0x409,0x409,0x409,0x44a,0x409,0x409,0x409,0x409,0x409,0x409,0x44a,0x44a,0x44a,0x409,0x409,0x409,0x409,0x44a,0x409,0x409,0x409,0x44a,0x44a,0x44a,0x44a,0x44a,0x409,0x409,0x409,0x44a,0x409,0x409,0x409,0x409,0x44a,0x44a,0x44a,0x409,0x409,0x409,0x409,0x44a,0x409,0x409,0x409,0x44a,0x44a,0x44a,0x44a,0x44a,0x409,0x409,0x409,0x44a,0x409,0x409,0x409,0x409,0x44a,0x44a,0x44a,0x409,0x409,0x409,0x409,0x44a,0x409,0x409,0x409,0x44a,0x44a,0x44a,0x44a,0x44a,0x409,0x409,0x409,0x44a,0x409,0x409,0x409,0x409,0x44a,0x44a,0x44a,0x409,0x409,0x409,0x409,0x44a,0x44a,0x44a,0x44a,0x44a,0x409,0x409,0x409,0x409,0x409,0x409,0x409,0x44a,0x44a,0x44a,0x44a,0x44a,0x409,0x409,0x409,0x409,0x409,0x409,0x409,0x44a,0x44a,0x44a,0x44a,0x44a,0x409,0x409,0x409,0x409,0x409,0x409,0x409,0x44a,0x44a,0x44a,0x44a,0x44a,0x409,0x409,0x409,0x409,0x409,0x409,0x409,0x44a,0x44a,0x44a,0x44a,0x44a,0x409,0x409,0x409,0x409,0x409,0x409,0x409,0x44a,0x44a,0x44a,0x44a,0x44a,0x409,0x409,0x409,0x409,0x409,0x409,0x409,0x44a,0x44a,0x44a,0x44a,0x44a,0x409};
Image backgroundImage(backgroundData, ColorMode::rgb565);
    5740:	f00b feda 	bl	114f8 <__aeabi_atexit>

const uint16_t cardSpriteData[] = {9,14,0x1f,0xffff,0xffff,0xffff,0xffff,0xffff,0xffff,0xffff,0x1f,0xffff,0xffff,0xffff,0xffff,0xffff,0xffff,0xffff,0xffff,0xffff,0xffff,0xffff,0xffff,0xffff,0xffff,0xffff,0xffff,0xffff,0xffff,0xffff,0xffff,0xffff,0xffff,0xffff,0xffff,0xffff,0xffff,0xffff,0xffff,0xffff,0xffff,0xffff,0xffff,0xffff,0xffff,0xffff,0xffff,0xffff,0xffff,0xffff,0xffff,0xffff,0xffff,0xffff,0xffff,0xffff,0xffff,0xffff,0xffff,0xffff,0xffff,0xffff,0xffff,0xffff,0xffff,0xffff,0xffff,0xffff,0xffff,0xffff,0xffff,0xffff,0xffff,0xffff,0xffff,0xffff,0xffff,0xffff,0xffff,0xffff,0xffff,0xffff,0xffff,0xffff,0xffff,0xffff,0xffff,0xffff,0xffff,0xffff,0xffff,0xffff,0xffff,0xffff,0xffff,0xffff,0xffff,0xffff,0xffff,0xffff,0xffff,0xffff,0xffff,0xffff,0xffff,0xffff,0xffff,0xffff,0xffff,0xffff,0xffff,0xffff,0xffff,0xffff,0xffff,0xffff,0xffff,0xffff,0xffff,0x1f,0xffff,0xffff,0xffff,0xffff,0xffff,0xffff,0xffff,0x1f,0x1f,0xfeb2,0xfeb2,0xfeb2,0xfeb2,0xfeb2,0xfeb2,0xfeb2,0x1f,0xfeb2,0xfeb2,0xfeb2,0xfeb2,0xfeb2,0xfeb2,0xfeb2,0xfeb2,0xfeb2,0xfeb2,0xfeb2,0xfeb2,0xfeb2,0xfeb2,0xfeb2,0xfeb2,0xfeb2,0xfeb2,0xfeb2,0xfeb2,0xfeb2,0xfeb2,0xcc68,0xfeb2,0xfeb2,0xfeb2,0xfeb2,0xfeb2,0xfeb2,0xfeb2,0xfeb2,0xcc68,0xfeb2,0xfeb2,0xfeb2,0xfeb2,0xfeb2,0xfeb2,0xcc68,0xcc68,0xcc68,0xcc68,0xcc68,0xfeb2,0xfeb2,0xfeb2,0xfeb2,0xfeb2,0xfeb2,0xfeb2,0xfeb2,0xfeb2,0xfeb2,0xfeb2,0xfeb2,0xfeb2,0xfeb2,0xcc68,0xcc68,0xcc68,0xfeb2,0xfeb2,0xfeb2,0xfeb2,0xfeb2,0xcc68,0xfeb2,0xcc68,0xfeb2,0xcc68,0xfeb2,0xfeb2,0xfeb2,0xfeb2,0xfeb2,0xfeb2,0xfeb2,0xfeb2,0xfeb2,0xfeb2,0xfeb2,0xfeb2,0xfeb2,0xfeb2,0xfeb2,0xfd42,0xfeb2,0xfeb2,0xfeb2,0xfeb2,0xfeb2,0xfeb2,0xfeb2,0xfeb2,0xfeb2,0xfeb2,0xfeb2,0xfeb2,0xfeb2,0xfeb2,0xfeb2,0xfeb2,0xfeb2,0xfeb2,0xfeb2,0xfeb2,0xfeb2,0xfeb2,0x1f,0xfeb2,0xfeb2,0xfeb2,0xfeb2,0xfeb2,0xfeb2,0xfeb2,0x1f};
Image cardSprite(cardSpriteData, ColorMode::rgb565, 2, 0);
    5744:	1c22      	adds	r2, r4, #0
    5746:	2302      	movs	r3, #2
    5748:	9400      	str	r4, [sp, #0]
    574a:	492d      	ldr	r1, [pc, #180]	; (5800 <_GLOBAL__sub_I_backgroundImage+0xe0>)
    574c:	482d      	ldr	r0, [pc, #180]	; (5804 <_GLOBAL__sub_I_backgroundImage+0xe4>)
    574e:	f005 fc77 	bl	b040 <_ZN14Gamebuino_Meta5ImageC1EPKtNS_9ColorModeEth>
    5752:	1c31      	adds	r1, r6, #0
    5754:	1c2a      	adds	r2, r5, #0
    5756:	482b      	ldr	r0, [pc, #172]	; (5804 <_GLOBAL__sub_I_backgroundImage+0xe4>)
    5758:	f00b fece 	bl	114f8 <__aeabi_atexit>

const uint16_t cardTopSpriteData[] = {9,3,0x1f,0xffff,0xffff,0xffff,0xffff,0xffff,0xffff,0xffff,0x1f,0xffff,0xacd0,0xacd0,0xacd0,0xacd0,0xacd0,0xacd0,0xacd0,0xffff,0xacd0,0x1f,0x1f,0x1f,0x1f,0x1f,0x1f,0x1f,0xacd0,0x1f,0xfeb2,0xfeb2,0xfeb2,0xfeb2,0xfeb2,0xfeb2,0xfeb2,0x1f,0xfeb2,0xcc68,0xcc68,0xcc68,0xcc68,0xcc68,0xcc68,0xcc68,0xfeb2,0xcc68,0x1f,0x1f,0x1f,0x1f,0x1f,0x1f,0x1f,0xcc68};
Image cardTopSprite(cardTopSpriteData, ColorMode::rgb565, 2, 0);
    575c:	1c22      	adds	r2, r4, #0
    575e:	2302      	movs	r3, #2
    5760:	9400      	str	r4, [sp, #0]
    5762:	4929      	ldr	r1, [pc, #164]	; (5808 <_GLOBAL__sub_I_backgroundImage+0xe8>)
    5764:	4829      	ldr	r0, [pc, #164]	; (580c <_GLOBAL__sub_I_backgroundImage+0xec>)
    5766:	f005 fc6b 	bl	b040 <_ZN14Gamebuino_Meta5ImageC1EPKtNS_9ColorModeEth>
    576a:	1c31      	adds	r1, r6, #0
    576c:	1c2a      	adds	r2, r5, #0
    576e:	4827      	ldr	r0, [pc, #156]	; (580c <_GLOBAL__sub_I_backgroundImage+0xec>)
    5770:	f00b fec2 	bl	114f8 <__aeabi_atexit>

const uint16_t valueSpriteData[] = {3,5,0x1f,0x1f,0x1f,0x1f,0x1f,0x0,0x1f,0x1f,0x0,0x1f,0x1f,0x0,0x1f,0x1f,0x0,0x1f,0x0,0x1f,0x0,0x1f,0x0,0x0,0x0,0x0,0x0,0x1f,0x0,0x0,0x1f,0x0,0x0,0x0,0x0,0x1f,0x1f,0x0,0x0,0x0,0x0,0x0,0x1f,0x1f,0x0,0x0,0x0,0x0,0x0,0x0,0x1f,0x1f,0x0,0x1f,0x0,0x0,0x1f,0x1f,0x0,0x0,0x0,0x0,0x0,0x1f,0x1f,0x0,0x1f,0x0,0x0,0x0,0x0,0x1f,0x1f,0x0,0x1f,0x1f,0x0,0x0,0x0,0x0,0x0,0x1f,0x1f,0x0,0x0,0x0,0x1f,0x1f,0x0,0x0,0x0,0x0,0x0,0x0,0x0,0x0,0x1f,0x1f,0x0,0x0,0x0,0x0,0x1f,0x0,0x0,0x0,0x0,0x0,0x0,0x0,0x1f,0x1f,0x0,0x1f,0x1f,0x0,0x1f,0x1f,0x0,0x1f,0x1f,0x0,0x0,0x0,0x0,0x0,0x1f,0x0,0x0,0x0,0x0,0x0,0x1f,0x0,0x0,0x0,0x0,0x0,0x0,0x0,0x0,0x1f,0x0,0x0,0x0,0x0,0x1f,0x1f,0x0,0x0,0x0,0x0,0x0,0x0,0x0,0x0,0x1f,0x0,0x0,0x1f,0x0,0x0,0x1f,0x0,0x0,0x0,0x0,0x1f,0x1f,0x0,0x1f,0x1f,0x0,0x1f,0x1f,0x0,0x0,0x1f,0x0,0x0,0x0,0x0,0x0,0x0,0x0,0x0,0x1f,0x0,0x0,0x1f,0x0,0x0,0x0,0x0,0x1f,0x0,0x1f,0x0,0x1f,0x0,0x0,0x1f,0x0,0x0,0x0,0x1f,0x0,0x1f,0x0,0x0,0x1f,0x0,0x1f,0x1f,0x1f,0x1f,0x1f,0xb8a2,0x1f,0x1f,0xb8a2,0x1f,0x1f,0xb8a2,0x1f,0x1f,0xb8a2,0x1f,0xb8a2,0x1f,0xb8a2,0x1f,0xb8a2,0xb8a2,0xb8a2,0xb8a2,0xb8a2,0x1f,0xb8a2,0xb8a2,0x1f,0xb8a2,0xb8a2,0xb8a2,0xb8a2,0x1f,0x1f,0xb8a2,0xb8a2,0xb8a2,0xb8a2,0xb8a2,0x1f,0x1f,0xb8a2,0xb8a2,0xb8a2,0xb8a2,0xb8a2,0xb8a2,0x1f,0x1f,0xb8a2,0x1f,0xb8a2,0xb8a2,0x1f,0x1f,0xb8a2,0xb8a2,0xb8a2,0xb8a2,0xb8a2,0x1f,0x1f,0xb8a2,0x1f,0xb8a2,0xb8a2,0xb8a2,0xb8a2,0x1f,0x1f,0xb8a2,0x1f,0x1f,0xb8a2,0xb8a2,0xb8a2,0xb8a2,0xb8a2,0x1f,0x1f,0xb8a2,0xb8a2,0xb8a2,0x1f,0x1f,0xb8a2,0xb8a2,0xb8a2,0xb8a2,0xb8a2,0xb8a2,0xb8a2,0xb8a2,0x1f,0x1f,0xb8a2,0xb8a2,0xb8a2,0xb8a2,0x1f,0xb8a2,0xb8a2,0xb8a2,0xb8a2,0xb8a2,0xb8a2,0xb8a2,0x1f,0x1f,0xb8a2,0x1f,0x1f,0xb8a2,0x1f,0x1f,0xb8a2,0x1f,0x1f,0xb8a2,0xb8a2,0xb8a2,0xb8a2,0xb8a2,0x1f,0xb8a2,0xb8a2,0xb8a2,0xb8a2,0xb8a2,0x1f,0xb8a2,0xb8a2,0xb8a2,0xb8a2,0xb8a2,0xb8a2,0xb8a2,0xb8a2,0x1f,0xb8a2,0xb8a2,0xb8a2,0xb8a2,0x1f,0x1f,0xb8a2,0xb8a2,0xb8a2,0xb8a2,0xb8a2,0xb8a2,0xb8a2,0xb8a2,0x1f,0xb8a2,0xb8a2,0x1f,0xb8a2,0xb8a2,0x1f,0xb8a2,0xb8a2,0xb8a2,0xb8a2,0x1f,0x1f,0xb8a2,0x1f,0x1f,0xb8a2,0x1f,0x1f,0xb8a2,0xb8a2,0x1f,0xb8a2,0xb8a2,0xb8a2,0xb8a2,0xb8a2,0xb8a2,0xb8a2,0xb8a2,0x1f,0xb8a2,0xb8a2,0x1f,0xb8a2,0xb8a2,0xb8a2,0xb8a2,0x1f,0xb8a2,0x1f,0xb8a2,0x1f,0xb8a2,0xb8a2,0x1f,0xb8a2,0xb8a2,0xb8a2,0x1f,0xb8a2,0x1f,0xb8a2,0xb8a2,0x1f,0xb8a2};
Image valueSprite(valueSpriteData, ColorMode::rgb565, 28, 0);
    5774:	1c22      	adds	r2, r4, #0
    5776:	231c      	movs	r3, #28
    5778:	9400      	str	r4, [sp, #0]
    577a:	4925      	ldr	r1, [pc, #148]	; (5810 <_GLOBAL__sub_I_backgroundImage+0xf0>)
    577c:	4825      	ldr	r0, [pc, #148]	; (5814 <_GLOBAL__sub_I_backgroundImage+0xf4>)
    577e:	f005 fc5f 	bl	b040 <_ZN14Gamebuino_Meta5ImageC1EPKtNS_9ColorModeEth>
    5782:	1c31      	adds	r1, r6, #0
    5784:	1c2a      	adds	r2, r5, #0
    5786:	4823      	ldr	r0, [pc, #140]	; (5814 <_GLOBAL__sub_I_backgroundImage+0xf4>)
    5788:	f00b feb6 	bl	114f8 <__aeabi_atexit>

const uint16_t suitSpriteData[] = {5,5,0x1f,0x1f,0x0,0x1f,0x1f,0x1f,0x0,0x0,0x0,0x1f,0x0,0x0,0x0,0x0,0x0,0x0,0x0,0x0,0x0,0x0,0x1f,0x1f,0x0,0x1f,0x1f,0x1f,0x0,0x0,0x0,0x1f,0x0,0x1f,0x0,0x1f,0x0,0x0,0x0,0x0,0x0,0x0,0x0,0x1f,0x0,0x1f,0x0,0x1f,0x1f,0x0,0x1f,0x1f,0x1f,0xb8a2,0x1f,0xb8a2,0x1f,0xb8a2,0xb8a2,0xb8a2,0xb8a2,0xb8a2,0xb8a2,0xb8a2,0xb8a2,0xb8a2,0xb8a2,0x1f,0xb8a2,0xb8a2,0xb8a2,0x1f,0x1f,0x1f,0xb8a2,0x1f,0x1f,0x1f,0x1f,0xb8a2,0x1f,0x1f,0x1f,0xb8a2,0xb8a2,0xb8a2,0x1f,0xb8a2,0xb8a2,0xb8a2,0xb8a2,0xb8a2,0x1f,0xb8a2,0xb8a2,0xb8a2,0x1f,0x1f,0x1f,0xb8a2,0x1f,0x1f};
Image suitSprite(suitSpriteData, ColorMode::rgb565, 4, 0);
    578c:	1c22      	adds	r2, r4, #0
    578e:	2304      	movs	r3, #4
    5790:	9400      	str	r4, [sp, #0]
    5792:	4921      	ldr	r1, [pc, #132]	; (5818 <_GLOBAL__sub_I_backgroundImage+0xf8>)
    5794:	4821      	ldr	r0, [pc, #132]	; (581c <_GLOBAL__sub_I_backgroundImage+0xfc>)
    5796:	f005 fc53 	bl	b040 <_ZN14Gamebuino_Meta5ImageC1EPKtNS_9ColorModeEth>
    579a:	1c31      	adds	r1, r6, #0
    579c:	1c2a      	adds	r2, r5, #0
    579e:	481f      	ldr	r0, [pc, #124]	; (581c <_GLOBAL__sub_I_backgroundImage+0xfc>)
    57a0:	f00b feaa 	bl	114f8 <__aeabi_atexit>

const uint16_t cursorData[] = {7,7,0x1f,0x1f,0x1f,0x0,0x0,0x1f,0x1f,0x1f,0x1f,0x0,0xffff,0x0,0x1f,0x1f,0x1f,0x0,0xffff,0xffff,0x0,0x0,0x0,0x0,0xffff,0xffff,0xffff,0xffff,0xffff,0x0,0x1f,0x0,0xffff,0xffff,0x0,0x0,0x0,0x1f,0x1f,0x0,0xffff,0x0,0x1f,0x1f,0x1f,0x1f,0x1f,0x0,0x0,0x1f,0x1f};
Image cursorImage(cursorData, ColorMode::rgb565);
    57a4:	1c3b      	adds	r3, r7, #0
    57a6:	9700      	str	r7, [sp, #0]
    57a8:	1c22      	adds	r2, r4, #0
    57aa:	491d      	ldr	r1, [pc, #116]	; (5820 <_GLOBAL__sub_I_backgroundImage+0x100>)
    57ac:	481d      	ldr	r0, [pc, #116]	; (5824 <_GLOBAL__sub_I_backgroundImage+0x104>)
    57ae:	f005 fc47 	bl	b040 <_ZN14Gamebuino_Meta5ImageC1EPKtNS_9ColorModeEth>
    57b2:	1c31      	adds	r1, r6, #0
    57b4:	1c2a      	adds	r2, r5, #0
    57b6:	481b      	ldr	r0, [pc, #108]	; (5824 <_GLOBAL__sub_I_backgroundImage+0x104>)
    57b8:	f00b fe9e 	bl	114f8 <__aeabi_atexit>

const uint16_t cursorDetailsData[] = {21,9,0x1f,0x1f,0x1f,0x1f,0x1f,0x1f,0x1f,0x0,0x0,0x0,0x0,0x0,0x0,0x0,0x0,0x0,0x0,0x0,0x0,0x0,0x1f,0x1f,0x1f,0x1f,0x0,0x0,0x1f,0x0,0xffff,0xffff,0xffff,0xffff,0xffff,0xffff,0xffff,0xffff,0xffff,0xffff,0xffff,0xffff,0xffff,0x0,0x1f,0x1f,0x0,0xffff,0x0,0x1f,0x0,0xffff,0xffff,0xffff,0xffff,0xffff,0xffff,0xffff,0xffff,0xffff,0xffff,0xffff,0xffff,0xffff,0x0,0x1f,0x0,0xffff,0xffff,0x0,0x0,0x0,0xffff,0xffff,0xffff,0xffff,0xffff,0xffff,0xffff,0xffff,0xffff,0xffff,0xffff,0xffff,0xffff,0x0,0x0,0xffff,0xffff,0xffff,0xffff,0xffff,0xffff,0xffff,0xffff,0xffff,0xffff,0xffff,0xffff,0xffff,0xffff,0xffff,0xffff,0xffff,0xffff,0xffff,0x0,0x1f,0x0,0xffff,0xffff,0x0,0x0,0x0,0xffff,0xffff,0xffff,0xffff,0xffff,0xffff,0xffff,0xffff,0xffff,0xffff,0xffff,0xffff,0xffff,0x0,0x1f,0x1f,0x0,0xffff,0x0,0x1f,0x0,0xffff,0xffff,0xffff,0xffff,0xffff,0xffff,0xffff,0xffff,0xffff,0xffff,0xffff,0xffff,0xffff,0x0,0x1f,0x1f,0x1f,0x0,0x0,0x1f,0x0,0xffff,0xffff,0xffff,0xffff,0xffff,0xffff,0xffff,0xffff,0xffff,0xffff,0xffff,0xffff,0xffff,0x0,0x1f,0x1f,0x1f,0x1f,0x1f,0x1f,0x1f,0x0,0x0,0x0,0x0,0x0,0x0,0x0,0x0,0x0,0x0,0x0,0x0,0x0,0x1f};
Image cursorDetailsImage(cursorDetailsData, ColorMode::rgb565);
    57bc:	1c3b      	adds	r3, r7, #0
    57be:	9700      	str	r7, [sp, #0]
    57c0:	1c22      	adds	r2, r4, #0
    57c2:	4919      	ldr	r1, [pc, #100]	; (5828 <_GLOBAL__sub_I_backgroundImage+0x108>)
    57c4:	4819      	ldr	r0, [pc, #100]	; (582c <_GLOBAL__sub_I_backgroundImage+0x10c>)
    57c6:	f005 fc3b 	bl	b040 <_ZN14Gamebuino_Meta5ImageC1EPKtNS_9ColorModeEth>
    57ca:	1c31      	adds	r1, r6, #0
    57cc:	1c2a      	adds	r2, r5, #0
    57ce:	4817      	ldr	r0, [pc, #92]	; (582c <_GLOBAL__sub_I_backgroundImage+0x10c>)
    57d0:	f00b fe92 	bl	114f8 <__aeabi_atexit>

const uint16_t talonBackgroundData[] = {5,14,0x1f,0xffff,0xacd0,0xffff,0xacd0,0xffff,0xacd0,0xffff,0xacd0,0xffff,0xffff,0xacd0,0xffff,0xacd0,0xffff,0xffff,0xacd0,0xffff,0xacd0,0xffff,0xffff,0xacd0,0xffff,0xacd0,0xffff,0xffff,0xacd0,0xffff,0xacd0,0xffff,0xffff,0xacd0,0xffff,0xacd0,0xffff,0xffff,0xacd0,0xffff,0xacd0,0xffff,0xffff,0xacd0,0xffff,0xacd0,0xffff,0xffff,0xacd0,0xffff,0xacd0,0xffff,0xffff,0xacd0,0xffff,0xacd0,0xffff,0xffff,0xacd0,0xffff,0xacd0,0xffff,0xffff,0xacd0,0xffff,0xacd0,0xffff,0x1f,0xffff,0xacd0,0xffff,0xacd0};
Image talonBackgroundImage(talonBackgroundData, ColorMode::rgb565);
    57d4:	1c3b      	adds	r3, r7, #0
    57d6:	9700      	str	r7, [sp, #0]
    57d8:	1c22      	adds	r2, r4, #0
    57da:	4915      	ldr	r1, [pc, #84]	; (5830 <_GLOBAL__sub_I_backgroundImage+0x110>)
    57dc:	4815      	ldr	r0, [pc, #84]	; (5834 <_GLOBAL__sub_I_backgroundImage+0x114>)
    57de:	f005 fc2f 	bl	b040 <_ZN14Gamebuino_Meta5ImageC1EPKtNS_9ColorModeEth>
    57e2:	1c31      	adds	r1, r6, #0
    57e4:	1c2a      	adds	r2, r5, #0
    57e6:	4813      	ldr	r0, [pc, #76]	; (5834 <_GLOBAL__sub_I_backgroundImage+0x114>)
    57e8:	f00b fe86 	bl	114f8 <__aeabi_atexit>
  valueSprite.setTransparentColor((Color)0x1f);
  suitSprite.setTransparentColor((Color)0x1f);
  cursorImage.setTransparentColor((Color)0x1f);
  cursorDetailsImage.setTransparentColor((Color)0x1f);
  talonBackgroundImage.setTransparentColor((Color)0x1f);
}
    57ec:	bdf7      	pop	{r0, r1, r2, r4, r5, r6, r7, pc}
    57ee:	46c0      	nop			; (mov r8, r8)
    57f0:	20000578 	.word	0x20000578
    57f4:	00012234 	.word	0x00012234
    57f8:	0000a221 	.word	0x0000a221
    57fc:	20000000 	.word	0x20000000
    5800:	00011c5c 	.word	0x00011c5c
    5804:	20000528 	.word	0x20000528
    5808:	00011b86 	.word	0x00011b86
    580c:	20000550 	.word	0x20000550
    5810:	00011ee8 	.word	0x00011ee8
    5814:	200004d8 	.word	0x200004d8
    5818:	00011aba 	.word	0x00011aba
    581c:	200004b0 	.word	0x200004b0
    5820:	00011bf6 	.word	0x00011bf6
    5824:	20000488 	.word	0x20000488
    5828:	0001193c 	.word	0x0001193c
    582c:	200005a0 	.word	0x200005a0
    5830:	00011e58 	.word	0x00011e58
    5834:	20000500 	.word	0x20000500

00005838 <_ZN9UndoStackC1Ev>:
#include "undo.h"

UndoStack::UndoStack() {
    5838:	1c01      	adds	r1, r0, #0
    583a:	1c03      	adds	r3, r0, #0
    583c:	3178      	adds	r1, #120	; 0x78
#include "pile.h"

#define UNDO_STACK_SIZE 10

struct UndoAction {
    583e:	2200      	movs	r2, #0
    5840:	701a      	strb	r2, [r3, #0]
    5842:	330c      	adds	r3, #12
    5844:	428b      	cmp	r3, r1
    5846:	d1fa      	bne.n	583e <_ZN9UndoStackC1Ev+0x6>
    index = count = 0;
    5848:	1c01      	adds	r1, r0, #0
    584a:	3179      	adds	r1, #121	; 0x79
    584c:	700a      	strb	r2, [r1, #0]
    584e:	701a      	strb	r2, [r3, #0]
}
    5850:	4770      	bx	lr

00005852 <_ZN9UndoStack10pushActionE10UndoAction>:

void UndoStack::pushAction(UndoAction action) {
    5852:	b5f0      	push	{r4, r5, r6, r7, lr}
    5854:	b085      	sub	sp, #20
    5856:	9202      	str	r2, [sp, #8]
    actions[index++] = action;
    5858:	1c02      	adds	r2, r0, #0

UndoStack::UndoStack() {
    index = count = 0;
}

void UndoStack::pushAction(UndoAction action) {
    585a:	9101      	str	r1, [sp, #4]
    585c:	9303      	str	r3, [sp, #12]
    actions[index++] = action;
    585e:	3278      	adds	r2, #120	; 0x78
    5860:	7813      	ldrb	r3, [r2, #0]
    5862:	250c      	movs	r5, #12
    5864:	1c59      	adds	r1, r3, #1
    5866:	436b      	muls	r3, r5
    5868:	b2c9      	uxtb	r1, r1

UndoStack::UndoStack() {
    index = count = 0;
}

void UndoStack::pushAction(UndoAction action) {
    586a:	ac01      	add	r4, sp, #4
    actions[index++] = action;
    586c:	7011      	strb	r1, [r2, #0]
    586e:	18c3      	adds	r3, r0, r3
    5870:	cce0      	ldmia	r4!, {r5, r6, r7}
    5872:	c3e0      	stmia	r3!, {r5, r6, r7}
    if (index >= UNDO_STACK_SIZE) index = 0;
    5874:	2909      	cmp	r1, #9
    5876:	d901      	bls.n	587c <_ZN9UndoStack10pushActionE10UndoAction+0x2a>
    5878:	2300      	movs	r3, #0
    587a:	7013      	strb	r3, [r2, #0]
    count++;
    587c:	3079      	adds	r0, #121	; 0x79
    587e:	7803      	ldrb	r3, [r0, #0]
    5880:	3301      	adds	r3, #1
    5882:	b2db      	uxtb	r3, r3
    if (count > UNDO_STACK_SIZE) count = UNDO_STACK_SIZE;
    5884:	2b0a      	cmp	r3, #10
    5886:	d900      	bls.n	588a <_ZN9UndoStack10pushActionE10UndoAction+0x38>
    5888:	230a      	movs	r3, #10
    588a:	7003      	strb	r3, [r0, #0]
}
    588c:	b005      	add	sp, #20
    588e:	bdf0      	pop	{r4, r5, r6, r7, pc}

00005890 <_ZN9UndoStack9popActionEv>:

UndoAction UndoStack::popAction() {
    5890:	b530      	push	{r4, r5, lr}
    // Invalid
    return UndoAction();
}

bool UndoStack::isEmpty() const {
    return count == 0;
    5892:	1c0c      	adds	r4, r1, #0
    5894:	3479      	adds	r4, #121	; 0x79
    5896:	7823      	ldrb	r3, [r4, #0]
    count++;
    if (count > UNDO_STACK_SIZE) count = UNDO_STACK_SIZE;
}

UndoAction UndoStack::popAction() {
    if (!isEmpty()) {
    5898:	2b00      	cmp	r3, #0
    589a:	d012      	beq.n	58c2 <_ZN9UndoStack9popActionEv+0x32>
        if (index == 0) index = UNDO_STACK_SIZE - 1;
    589c:	1c0a      	adds	r2, r1, #0
    589e:	3278      	adds	r2, #120	; 0x78
    58a0:	7815      	ldrb	r5, [r2, #0]
    58a2:	2d00      	cmp	r5, #0
    58a4:	d101      	bne.n	58aa <_ZN9UndoStack9popActionEv+0x1a>
    58a6:	2509      	movs	r5, #9
    58a8:	e000      	b.n	58ac <_ZN9UndoStack9popActionEv+0x1c>
        else index--;
    58aa:	3d01      	subs	r5, #1
        count--;
    58ac:	3b01      	subs	r3, #1
}

UndoAction UndoStack::popAction() {
    if (!isEmpty()) {
        if (index == 0) index = UNDO_STACK_SIZE - 1;
        else index--;
    58ae:	7015      	strb	r5, [r2, #0]
        count--;
    58b0:	7023      	strb	r3, [r4, #0]
        return actions[index];
    58b2:	7813      	ldrb	r3, [r2, #0]
    58b4:	220c      	movs	r2, #12
    58b6:	4353      	muls	r3, r2
    58b8:	18c9      	adds	r1, r1, r3
    58ba:	1c03      	adds	r3, r0, #0
    58bc:	c934      	ldmia	r1!, {r2, r4, r5}
    58be:	c334      	stmia	r3!, {r2, r4, r5}
    58c0:	e002      	b.n	58c8 <_ZN9UndoStack9popActionEv+0x38>
    }
    // Invalid
    return UndoAction();
    58c2:	7003      	strb	r3, [r0, #0]
    58c4:	6043      	str	r3, [r0, #4]
    58c6:	6083      	str	r3, [r0, #8]
}
    58c8:	bd30      	pop	{r4, r5, pc}

000058ca <_ZNK9UndoStack7isEmptyEv>:

bool UndoStack::isEmpty() const {
    return count == 0;
    58ca:	3079      	adds	r0, #121	; 0x79
    58cc:	7800      	ldrb	r0, [r0, #0]
    58ce:	4243      	negs	r3, r0
    58d0:	4158      	adcs	r0, r3
    58d2:	b2c0      	uxtb	r0, r0
    58d4:	4770      	bx	lr

000058d6 <_Z11hsvToRgb565hhh>:
#include <Gamebuino-Meta.h>
#include "utils.h"

// https://stackoverflow.com/questions/3018313/algorithm-to-convert-rgb-to-hsv-and-hsv-to-rgb-in-range-0-255-for-both#14733008
Color hsvToRgb565(unsigned char h, unsigned char s, unsigned char v)
{
    58d6:	b570      	push	{r4, r5, r6, lr}
    58d8:	1c06      	adds	r6, r0, #0
    58da:	1c0d      	adds	r5, r1, #0
    58dc:	1c14      	adds	r4, r2, #0
    unsigned char r, g, b;
    unsigned char region, remainder, p, q, t;

    if (s == 0)
    58de:	2900      	cmp	r1, #0
    58e0:	d10a      	bne.n	58f8 <_Z11hsvToRgb565hhh+0x22>
    {
        r = v;
        g = v;
        b = v;
        return (Color)(((r & 0xF8) << 8) | ((g & 0xFC) << 3) | (b >> 3));
    58e2:	2307      	movs	r3, #7
    58e4:	1c10      	adds	r0, r2, #0
    58e6:	4398      	bics	r0, r3
    58e8:	2303      	movs	r3, #3
    58ea:	439a      	bics	r2, r3
    58ec:	0200      	lsls	r0, r0, #8
    58ee:	00d3      	lsls	r3, r2, #3
    58f0:	4318      	orrs	r0, r3
    58f2:	10e4      	asrs	r4, r4, #3
    58f4:	4320      	orrs	r0, r4
    58f6:	e042      	b.n	597e <_Z11hsvToRgb565hhh+0xa8>
    }

    region = h / 43;
    58f8:	212b      	movs	r1, #43	; 0x2b
    58fa:	f00b fd4d 	bl	11398 <__aeabi_uidiv>
    remainder = (h - (region * 43)) * 6; 
    58fe:	222b      	movs	r2, #43	; 0x2b
        g = v;
        b = v;
        return (Color)(((r & 0xF8) << 8) | ((g & 0xFC) << 3) | (b >> 3));
    }

    region = h / 43;
    5900:	b2c0      	uxtb	r0, r0
    remainder = (h - (region * 43)) * 6; 
    5902:	4252      	negs	r2, r2
    5904:	4342      	muls	r2, r0
    5906:	18b6      	adds	r6, r6, r2
    5908:	2206      	movs	r2, #6
    590a:	4356      	muls	r6, r2

    p = (v * (255 - s)) >> 8;
    590c:	21ff      	movs	r1, #255	; 0xff
    q = (v * (255 - ((s * remainder) >> 8))) >> 8;
    590e:	b2f6      	uxtb	r6, r6
    5910:	1c32      	adds	r2, r6, #0
    t = (v * (255 - ((s * (255 - remainder)) >> 8))) >> 8;
    5912:	1b8e      	subs	r6, r1, r6
    }

    region = h / 43;
    remainder = (h - (region * 43)) * 6; 

    p = (v * (255 - s)) >> 8;
    5914:	1b4b      	subs	r3, r1, r5
    q = (v * (255 - ((s * remainder) >> 8))) >> 8;
    5916:	436a      	muls	r2, r5
    t = (v * (255 - ((s * (255 - remainder)) >> 8))) >> 8;
    5918:	4375      	muls	r5, r6

    region = h / 43;
    remainder = (h - (region * 43)) * 6; 

    p = (v * (255 - s)) >> 8;
    q = (v * (255 - ((s * remainder) >> 8))) >> 8;
    591a:	1212      	asrs	r2, r2, #8
    t = (v * (255 - ((s * (255 - remainder)) >> 8))) >> 8;
    591c:	122d      	asrs	r5, r5, #8

    region = h / 43;
    remainder = (h - (region * 43)) * 6; 

    p = (v * (255 - s)) >> 8;
    q = (v * (255 - ((s * remainder) >> 8))) >> 8;
    591e:	1a8a      	subs	r2, r1, r2
    t = (v * (255 - ((s * (255 - remainder)) >> 8))) >> 8;
    5920:	1b49      	subs	r1, r1, r5
    }

    region = h / 43;
    remainder = (h - (region * 43)) * 6; 

    p = (v * (255 - s)) >> 8;
    5922:	4363      	muls	r3, r4
    q = (v * (255 - ((s * remainder) >> 8))) >> 8;
    5924:	4362      	muls	r2, r4
    t = (v * (255 - ((s * (255 - remainder)) >> 8))) >> 8;
    5926:	4361      	muls	r1, r4
    }

    region = h / 43;
    remainder = (h - (region * 43)) * 6; 

    p = (v * (255 - s)) >> 8;
    5928:	121b      	asrs	r3, r3, #8
    q = (v * (255 - ((s * remainder) >> 8))) >> 8;
    592a:	1212      	asrs	r2, r2, #8
    t = (v * (255 - ((s * (255 - remainder)) >> 8))) >> 8;
    592c:	1209      	asrs	r1, r1, #8
    }

    region = h / 43;
    remainder = (h - (region * 43)) * 6; 

    p = (v * (255 - s)) >> 8;
    592e:	b2db      	uxtb	r3, r3
    q = (v * (255 - ((s * remainder) >> 8))) >> 8;
    5930:	b2d2      	uxtb	r2, r2
    t = (v * (255 - ((s * (255 - remainder)) >> 8))) >> 8;
    5932:	b2c9      	uxtb	r1, r1

    switch (region)
    5934:	2804      	cmp	r0, #4
    5936:	d814      	bhi.n	5962 <_Z11hsvToRgb565hhh+0x8c>
    5938:	f00b fd1a 	bl	11370 <__gnu_thumb1_case_uqi>
    593c:	09061703 	.word	0x09061703
    5940:	0e          	.byte	0x0e
    5941:	00          	.byte	0x00
    {
        case 0:
            r = v; g = t; b = p;
    5942:	1c22      	adds	r2, r4, #0
    5944:	1c0c      	adds	r4, r1, #0
    5946:	e010      	b.n	596a <_Z11hsvToRgb565hhh+0x94>
            break;
        case 1:
            r = q; g = v; b = p;
            break;
        case 2:
            r = p; g = v; b = t;
    5948:	1c1a      	adds	r2, r3, #0
    594a:	1c0b      	adds	r3, r1, #0
            break;
    594c:	e00d      	b.n	596a <_Z11hsvToRgb565hhh+0x94>
        case 3:
            r = p; g = q; b = v;
            break;
    594e:	1c11      	adds	r1, r2, #0
            break;
        case 2:
            r = p; g = v; b = t;
            break;
        case 3:
            r = p; g = q; b = v;
    5950:	1c1a      	adds	r2, r3, #0
    5952:	1c23      	adds	r3, r4, #0
    5954:	1c0c      	adds	r4, r1, #0
            break;
    5956:	e008      	b.n	596a <_Z11hsvToRgb565hhh+0x94>
        case 4:
            r = t; g = p; b = v;
            break;
    5958:	1c22      	adds	r2, r4, #0
            break;
        case 3:
            r = p; g = q; b = v;
            break;
        case 4:
            r = t; g = p; b = v;
    595a:	1c1c      	adds	r4, r3, #0
    595c:	1c13      	adds	r3, r2, #0
    595e:	1c0a      	adds	r2, r1, #0
            break;
    5960:	e003      	b.n	596a <_Z11hsvToRgb565hhh+0x94>
        default:
            r = v; g = p; b = q;
            break;
    5962:	1c11      	adds	r1, r2, #0
            break;
        case 4:
            r = t; g = p; b = v;
            break;
        default:
            r = v; g = p; b = q;
    5964:	1c22      	adds	r2, r4, #0
    5966:	1c1c      	adds	r4, r3, #0
    5968:	1c0b      	adds	r3, r1, #0
            break;
    }

    return (Color)(((r & 0xF8) << 8) | ((g & 0xFC) << 3) | (b >> 3));
    596a:	20f8      	movs	r0, #248	; 0xf8
    596c:	4002      	ands	r2, r0
    596e:	0210      	lsls	r0, r2, #8
    5970:	22fc      	movs	r2, #252	; 0xfc
    5972:	4014      	ands	r4, r2
    5974:	00e4      	lsls	r4, r4, #3
    5976:	4320      	orrs	r0, r4
    5978:	10db      	asrs	r3, r3, #3
